Microchip MPLAB XC8 Compiler V2.35

Linker command line:

-W9 --edf=C:\Program Files\Microchip\xc8\v2.35\pic\dat\en_msgs.txt -cn \
  -h+dist/18f67k40/production\BJU_AutoIrri_Lora_GPRS_DevBranch_New.X.production.sym \
  --cmf=dist/18f67k40/production\BJU_AutoIrri_Lora_GPRS_DevBranch_New.X.production.cmf \
  -z -Q18F67K40 -oC:\Users\nandu\AppData\Local\Temp\xcAsh7o.4 \
  --defsym=__MPLAB_BUILD=1 \
  -Mdist/18f67k40/production/BJU_AutoIrri_Lora_GPRS_DevBranch_New.X.production.map \
  --md=C:\Users\nandu\AppData\Local\Temp\xcAsh7o.dat -E1 -ver=XC8 Compiler \
  --acfsm=1493 -ACODE=00h-01FFFFh -ACONST=00h-01FFFFh \
  -ASMALLCONST=0E00h-0EFFhx498 -AMEDIUMCONST=0E00h-0FFFFh,010E00h-01FFFFh \
  -ACOMRAM=01h-05Fh -AABS1=00h-0DE9h -ABIGRAM=01h-0DE9h \
  -ARAM=060h-0FFh,0100h-01FFhx12,0D00h-0DE9h -ABANK0=060h-0FFh \
  -ABANK1=0100h-01FFh -ABANK2=0200h-02FFh -ABANK3=0300h-03FFh \
  -ABANK4=0400h-04FFh -ABANK5=0500h-05FFh -ABANK6=0600h-06FFh \
  -ABANK7=0700h-07FFh -ABANK8=0800h-08FFh -ABANK9=0900h-09FFh \
  -ABANK10=0A00h-0AFFh -ABANK11=0B00h-0BFFh -ABANK12=0C00h-0CFFh \
  -ABANK13=0D00h-0DE9h \
  -ASFR=0DEFh-0DFFh,0E00h-0EFFh,0F00h-0F5Fh,0F60h-0FFFh \
  -ABIGSFR=0DEFh-0FFFh -ACONFIG=0300000h-030000Bh -AIDLOC=0200000h-020000Fh \
  -AEEDATA=0310000h-03103FFh -peeprom_data=EEDATA \
  -preset_vec=00h,intcode=08h,intcodelo=018h,powerup,init -pramtop=0E00h \
  -psmallconst=SMALLCONST -pmediumconst=MEDIUMCONST -pconst=CONST \
  -AFARRAM=00h-00h \
  -prdata=COMRAM,nvrram=COMRAM,nvbit=COMRAM,rbss=COMRAM,rbit=COMRAM \
  -pfarbss=FARRAM,fardata=FARRAM,nvFARRAM=FARRAM \
  -pintsave_regs=BIGRAM,bigbss=BIGRAM,bigdata=BIGRAM -pbss=RAM \
  -pidata=CODE,irdata=CODE,ibigdata=CODE,ifardata=CODE -prparam=COMRAM \
  C:\Users\nandu\AppData\Local\Temp\xcAsh7o.o \
  dist/18f67k40/production\BJU_AutoIrri_Lora_GPRS_DevBranch_New.X.production.o 

Object code version is 3.11

Machine type is 18F67K40



                Name                               Link     Load   Length Selector   Space Scale
C:\Users\nandu\AppData\Local\Temp\xcAsh7o.o
                idloc                            200000   200000       10        0       5
                config                           300000   300000        C        0       4
                init                                696      696        4        C       0
                reset_vec                             0        0        4        0       0
dist/18f67k40/production\BJU_AutoIrri_Lora_GPRS_DevBranch_New.X.production.o
                eeprom_data                      310000   310000      360   310000       0
                intcodelo                            18       18      67E        C       0
                intcode                               8        8        6        4       0
                idloc                            200000   200000       10        0       5
                config                           300000   300000        C        0       4
                temp                                 5F       5F        1        1       1
                mediumconst                        E3E6     E3E6     1C1A     71F3       0
                text173                            231E     231E       14      590       0
                text172                            230A     230A       14      590       0
                text171                            1F94     1F94       32      590       0
                text170                            1F62     1F62       32      590       0
                text169                            1DCC     1DCC       36      590       0
                text168                            239E     239E       12      590       0
                text167                            238C     238C       12      590       0
                text166                            2054     2054       2C      590       0
                text165                            2274     2274       1A      590       0
                text164                             F06      F06       84      590       0
                text163                            237A     237A       12      590       0
                text162                            2148     2148       24      590       0
                text161                            22F6     22F6       14      590       0
                text160                            20FA     20FA       28      590       0
                text159                            23E8     23E8        E      590       0
                text158                            23DA     23DA        E      590       0
                text157                            1A44     1A44       50      590       0
                text156                            1604     1604       5C      590       0
                text155                            23F6     23F6        A      590       0
                text154                            1F30     1F30       32      590       0
                text153                            11C0     11C0       6A      590       0
                text152                            228E     228E       18      590       0
                text151                           1FFFC    1FFFC        2     8000       0
                text150                           1F7AE    1F7AE       CA     8000       0
                text149                           1F53E    1F53E       D8     8000       0
                text148                           1E25C    1E25C      188     8000       0
                text147                           1E994    1E994      164     8000       0
                text146                            1C32     1C32       40      590       0
                text145                            1B6C     1B6C       44      590       0
                text144                            19F4     19F4       50      590       0
                text143                           1FC5E    1FC5E       C6     8000       0
                text142                           1CBD8    1CBD8      2E4     8000       0
                text141                           1D61A    1D61A      23E     8000       0
                text140                            12F6     12F6       66      590       0
                text139                            19A2     19A2       52      590       0
                text138                           1E82E    1E82E      166     8000       0
                intcode_body                      186B2    186B2      6C8     8000       0
                text136                            1EFE     1EFE       32      590       0
                text135                           1E556    1E556      172     8000       0
                text133                            1ECC     1ECC       32      590       0
                text132                            1290     1290       66      590       0
                text131                            21AE     21AE       20      590       0
                text130                            1D96     1D96       36      590       0
                text129                            1950     1950       52      590       0
                text128                            22E2     22E2       14      590       0
                text127                            22CE     22CE       14      590       0
                text126                            22BA     22BA       14      590       0
                text125                            21EC     21EC       1E      590       0
                text124                           1FDDE    1FDDE       BA     8000       0
                text123                           1A4FA    1A4FA      52C     8000       0
                text122                            2368     2368       12      590       0
                text121                            2356     2356       12      590       0
                text120                            1FF6     1FF6       30      590       0
                text119                            220A     220A       1C      590       0
                text118                             D6E      D6E       8A      590       0
                text117                            22A6     22A6       14      590       0
                text116                            2080     2080       2A      590       0
                text115                            225A     225A       1A      590       0
                text114                            2026     2026       2E      590       0
                text113                            2344     2344       12      590       0
                text112                            1CB0     1CB0       3E      590       0
                text111                            1E9A     1E9A       32      590       0
                text110                            2332     2332       12      590       0
                text109                            1424     1424       64      590       0
                text108                            1BF2     1BF2       40      590       0
                text107                            218E     218E       20      590       0
                text106                           1FB98    1FB98       C6     8000       0
                text105                           1F464    1F464       DA     8000       0
                text104                           1FFFA    1FFFA        2     8000       0
                text103                           1F6E2    1F6E2       CC     8000       0
                text102                           1F0D4    1F0D4       EA     8000       0
                text101                           1E0D2    1E0D2      18A     8000       0
                text100                           1E6C8    1E6C8      166     8000       0
                text99                             1BB0     1BB0       42      590       0
                text98                             1B24     1B24       48      590       0
                text97                             17B4     17B4       54      590       0
                text96                            1F616    1F616       CC     8000       0
                text95                            1C8DC    1C8DC      2FC     8000       0
                text94                            1D3D0    1D3D0      24A     8000       0
                text93                             122A     122A       66      590       0
                text92                             18FE     18FE       52      590       0
                text91                            1E3E4    1E3E4      172     8000       0
                text90                             2240     2240       1A      590       0
                text89                             18AC     18AC       52      590       0
                text88                             1000     1000       76      590       0
                text87                            193E6    193E6      5C6     8000       0
                text86                             1E02     1E02       34      590       0
                text85                             1760     1760       54      590       0
                text84                            1FAD0    1FAD0       C8     8000       0
                text83                             170C     170C       54      590       0
                text82                            1FE98    1FE98       B2     8000       0
                text81                              F8A      F8A       76      590       0
                text80                             1E68     1E68       32      590       0
                text79                             20D2     20D2       28      590       0
                text78                             10E6     10E6       6E      590       0
                text77                             1FC6     1FC6       30      590       0
                text76                            1BD5A    1BD5A      448     8000       0
                text75                             2226     2226       1A      590       0
                text74                             1ADC     1ADC       48      590       0
                text73                             185A     185A       52      590       0
                text72                            1C1A2    1C1A2      404     8000       0
                text71                            1B42E    1B42E      4B2     8000       0
                text70                            1DBFA    1DBFA      1A2     8000       0
                text69                              7F2      7F2       AA        C       0
                text68                             1660     1660       58      590       0
                text67                             23CC     23CC        E      590       0
                text66                             1CEE     1CEE       3A      590       0
                text65                              DF8      DF8       88      590       0
                text64                             2122     2122       26      590       0
                text63                             13C0     13C0       64      590       0
                text62                            171AC    171AC      728     8000       0
                text61                            1F382    1F382       E2     8000       0
                text60                            1F2A0    1F2A0       E2     8000       0
                text59                             21CE     21CE       1E      590       0
                text58                              748      748       AA        C       0
                text57                            1FA08    1FA08       C8     8000       0
                text56                            178D4    178D4      6FE     8000       0
                text55                             135C     135C       64      590       0
                text54                            12B96    12B96      F16     8000       0
                text53                            1ED82    1ED82      138     8000       0
                text52                             216C     216C       22      590       0
                text51                             23BE     23BE        E      590       0
                text50                             23B0     23B0        E      590       0
                text49                            1EAF8    1EAF8      150     8000       0
                text48                            1C5A6    1C5A6      336     8000       0
                text47                            16964    16964      848     8000       0
                text46                              CDC      CDC       92      590       0
                text45                              89C      89C       A6        C       0
                text44                            15F70    15F70      9F4     8000       0
                text43                            18D7A    18D7A      66C     8000       0
                text42                            1DA4E    1DA4E      1AC     8000       0
                text41                            1DF38    1DF38      19A     8000       0
                text40                             1A94     1A94       48      590       0
                text39                            1F940    1F940       C8     8000       0
                text38                            1F1BE    1F1BE       E2     8000       0
                text37                            19F66    19F66      594     8000       0
                text36                            1AA26    1AA26      526     8000       0
                text35                             1D60     1D60       36      590       0
                text34                             1E36     1E36       32      590       0
                text33                             1C72     1C72       3E      590       0
                text32                              9E6      9E6       A4        C       0
                text31                            1EFD6    1EFD6       FE     8000       0
                text30                            1AF4C    1AF4C      4E2     8000       0
                text29                             1808     1808       52      590       0
                text28                              C48      C48       94      590       0
                text27                             1548     1548       60      590       0
                text26                              BB4      BB4       94      590       0
                text25                            1D858    1D858      1F6     8000       0
                text24                             16B8     16B8       54      590       0
                text23                            1CEBC    1CEBC      2B6     8000       0
                text22                            1EC48    1EC48      13A     8000       0
                text21                              E80      E80       86      590       0
                text20                            10000    10000     2B96     8000       0
                text19                             14E8     14E8       60      590       0
                text18                              942      942       A4        C       0
                text17                            1DD9C    1DD9C      19C     8000       0
                text16                            13AAC    13AAC      D44     8000       0
                text15                            17FD2    17FD2      6E0     8000       0
                text14                             1D28     1D28       38      590       0
                text13                            1B8E0    1B8E0      47A     8000       0
                text12                             1154     1154       6C      590       0
                text11                             1076     1076       70      590       0
                text10                             20AA     20AA       28      590       0
                text9                             1FF4A    1FF4A       B0     8000       0
                text8                              15A8     15A8       5C      590       0
                text7                              1488     1488       60      590       0
                text6                               B20      B20       94      590       0
                text5                               69A      69A       AE        C       0
                text4                             199AC    199AC      5BA     8000       0
                text3                             147F0    147F0      C6C     8000       0
                text2                             1EEBA    1EEBA      11C     8000       0
                text1                             1545C    1545C      B14     8000       0
                text0                             1D172    1D172      25E     8000       0
                cstackCOMRAM                          1        1       5E        1       1
                cstackBANK0                          60       60       37       60       1
                cstackBANK1                         188      188       6F      100       1
                cstackBANK2                         2F8      2F8        8      200       1
                cstackBANK3                         3C8      3C8       2E      300       1
                bssBIGRAM                           560      560      2D0      560       1
                bssBANK5                            500      500       60      500       1
                dataBANK4                           400      400       C8      400       1
                bssBANK3                            300      300       C8      300       1
                dataBANK2                           200      200       95      200       1
                bssBANK2                            295      295       63      200       1
                dataBANK1                           1F7      1F7        9      100       1
                bssBANK1                            100      100       88      100       1
                bssBANK0                             97       97       35       60       1
                cinit                             1FD24    1FD24       BA     8000       0
                idataBANK4                        1F878    1F878       C8     8000       0
                idataBANK2                          A8A      A8A       95        C       0
                idataBANK1                         2400     2400        9      590       0

TOTAL           Name                               Link     Load   Length     Space
        CLASS   CODE           
                intcodelo                            18       18      67E         0
                intcode                               8        8        6         0
                init                                696      696        4         0
                reset_vec                             0        0        4         0
                text173                            231E     231E       14         0
                text172                            230A     230A       14         0
                text171                            1F94     1F94       32         0
                text170                            1F62     1F62       32         0
                text169                            1DCC     1DCC       36         0
                text168                            239E     239E       12         0
                text167                            238C     238C       12         0
                text166                            2054     2054       2C         0
                text165                            2274     2274       1A         0
                text164                             F06      F06       84         0
                text163                            237A     237A       12         0
                text162                            2148     2148       24         0
                text161                            22F6     22F6       14         0
                text160                            20FA     20FA       28         0
                text159                            23E8     23E8        E         0
                text158                            23DA     23DA        E         0
                text157                            1A44     1A44       50         0
                text156                            1604     1604       5C         0
                text155                            23F6     23F6        A         0
                text154                            1F30     1F30       32         0
                text153                            11C0     11C0       6A         0
                text152                            228E     228E       18         0
                text151                           1FFFC    1FFFC        2         0
                text150                           1F7AE    1F7AE       CA         0
                text149                           1F53E    1F53E       D8         0
                text148                           1E25C    1E25C      188         0
                text147                           1E994    1E994      164         0
                text146                            1C32     1C32       40         0
                text145                            1B6C     1B6C       44         0
                text144                            19F4     19F4       50         0
                text143                           1FC5E    1FC5E       C6         0
                text142                           1CBD8    1CBD8      2E4         0
                text141                           1D61A    1D61A      23E         0
                text140                            12F6     12F6       66         0
                text139                            19A2     19A2       52         0
                text138                           1E82E    1E82E      166         0
                intcode_body                      186B2    186B2      6C8         0
                text136                            1EFE     1EFE       32         0
                text135                           1E556    1E556      172         0
                text133                            1ECC     1ECC       32         0
                text132                            1290     1290       66         0
                text131                            21AE     21AE       20         0
                text130                            1D96     1D96       36         0
                text129                            1950     1950       52         0
                text128                            22E2     22E2       14         0
                text127                            22CE     22CE       14         0
                text126                            22BA     22BA       14         0
                text125                            21EC     21EC       1E         0
                text124                           1FDDE    1FDDE       BA         0
                text123                           1A4FA    1A4FA      52C         0
                text122                            2368     2368       12         0
                text121                            2356     2356       12         0
                text120                            1FF6     1FF6       30         0
                text119                            220A     220A       1C         0
                text118                             D6E      D6E       8A         0
                text117                            22A6     22A6       14         0
                text116                            2080     2080       2A         0
                text115                            225A     225A       1A         0
                text114                            2026     2026       2E         0
                text113                            2344     2344       12         0
                text112                            1CB0     1CB0       3E         0
                text111                            1E9A     1E9A       32         0
                text110                            2332     2332       12         0
                text109                            1424     1424       64         0
                text108                            1BF2     1BF2       40         0
                text107                            218E     218E       20         0
                text106                           1FB98    1FB98       C6         0
                text105                           1F464    1F464       DA         0
                text104                           1FFFA    1FFFA        2         0
                text103                           1F6E2    1F6E2       CC         0
                text102                           1F0D4    1F0D4       EA         0
                text101                           1E0D2    1E0D2      18A         0
                text100                           1E6C8    1E6C8      166         0
                text99                             1BB0     1BB0       42         0
                text98                             1B24     1B24       48         0
                text97                             17B4     17B4       54         0
                text96                            1F616    1F616       CC         0
                text95                            1C8DC    1C8DC      2FC         0
                text94                            1D3D0    1D3D0      24A         0
                text93                             122A     122A       66         0
                text92                             18FE     18FE       52         0
                text91                            1E3E4    1E3E4      172         0
                text90                             2240     2240       1A         0
                text89                             18AC     18AC       52         0
                text88                             1000     1000       76         0
                text87                            193E6    193E6      5C6         0
                text86                             1E02     1E02       34         0
                text85                             1760     1760       54         0
                text84                            1FAD0    1FAD0       C8         0
                text83                             170C     170C       54         0
                text82                            1FE98    1FE98       B2         0
                text81                              F8A      F8A       76         0
                text80                             1E68     1E68       32         0
                text79                             20D2     20D2       28         0
                text78                             10E6     10E6       6E         0
                text77                             1FC6     1FC6       30         0
                text76                            1BD5A    1BD5A      448         0
                text75                             2226     2226       1A         0
                text74                             1ADC     1ADC       48         0
                text73                             185A     185A       52         0
                text72                            1C1A2    1C1A2      404         0
                text71                            1B42E    1B42E      4B2         0
                text70                            1DBFA    1DBFA      1A2         0
                text69                              7F2      7F2       AA         0
                text68                             1660     1660       58         0
                text67                             23CC     23CC        E         0
                text66                             1CEE     1CEE       3A         0
                text65                              DF8      DF8       88         0
                text64                             2122     2122       26         0
                text63                             13C0     13C0       64         0
                text62                            171AC    171AC      728         0
                text61                            1F382    1F382       E2         0
                text60                            1F2A0    1F2A0       E2         0
                text59                             21CE     21CE       1E         0
                text58                              748      748       AA         0
                text57                            1FA08    1FA08       C8         0
                text56                            178D4    178D4      6FE         0
                text55                             135C     135C       64         0
                text54                            12B96    12B96      F16         0
                text53                            1ED82    1ED82      138         0
                text52                             216C     216C       22         0
                text51                             23BE     23BE        E         0
                text50                             23B0     23B0        E         0
                text49                            1EAF8    1EAF8      150         0
                text48                            1C5A6    1C5A6      336         0
                text47                            16964    16964      848         0
                text46                              CDC      CDC       92         0
                text45                              89C      89C       A6         0
                text44                            15F70    15F70      9F4         0
                text43                            18D7A    18D7A      66C         0
                text42                            1DA4E    1DA4E      1AC         0
                text41                            1DF38    1DF38      19A         0
                text40                             1A94     1A94       48         0
                text39                            1F940    1F940       C8         0
                text38                            1F1BE    1F1BE       E2         0
                text37                            19F66    19F66      594         0
                text36                            1AA26    1AA26      526         0
                text35                             1D60     1D60       36         0
                text34                             1E36     1E36       32         0
                text33                             1C72     1C72       3E         0
                text32                              9E6      9E6       A4         0
                text31                            1EFD6    1EFD6       FE         0
                text30                            1AF4C    1AF4C      4E2         0
                text29                             1808     1808       52         0
                text28                              C48      C48       94         0
                text27                             1548     1548       60         0
                text26                              BB4      BB4       94         0
                text25                            1D858    1D858      1F6         0
                text24                             16B8     16B8       54         0
                text23                            1CEBC    1CEBC      2B6         0
                text22                            1EC48    1EC48      13A         0
                text21                              E80      E80       86         0
                text20                            10000    10000     2B96         0
                text19                             14E8     14E8       60         0
                text18                              942      942       A4         0
                text17                            1DD9C    1DD9C      19C         0
                text16                            13AAC    13AAC      D44         0
                text15                            17FD2    17FD2      6E0         0
                text14                             1D28     1D28       38         0
                text13                            1B8E0    1B8E0      47A         0
                text12                             1154     1154       6C         0
                text11                             1076     1076       70         0
                text10                             20AA     20AA       28         0
                text9                             1FF4A    1FF4A       B0         0
                text8                              15A8     15A8       5C         0
                text7                              1488     1488       60         0
                text6                               B20      B20       94         0
                text5                               69A      69A       AE         0
                text4                             199AC    199AC      5BA         0
                text3                             147F0    147F0      C6C         0
                text2                             1EEBA    1EEBA      11C         0
                text1                             1545C    1545C      B14         0
                text0                             1D172    1D172      25E         0
                cinit                             1FD24    1FD24       BA         0
                idataBANK4                        1F878    1F878       C8         0
                idataBANK2                          A8A      A8A       95         0
                idataBANK1                         2400     2400        9         0

        CLASS   CONST          

        CLASS   SMALLCONST     

        CLASS   MEDIUMCONST    
                mediumconst                        E3E6     E3E6     1C1A         0

        CLASS   COMRAM         
                temp                                 5F       5F        1         1
                cstackCOMRAM                          1        1       5E         1

        CLASS   ABS1           

        CLASS   BIGRAM         
                bssBIGRAM                           560      560      2D0         1

        CLASS   RAM            

        CLASS   BANK0          
                cstackBANK0                          60       60       37         1
                bssBANK0                             97       97       35         1

        CLASS   BANK1          
                cstackBANK1                         188      188       6F         1
                dataBANK1                           1F7      1F7        9         1
                bssBANK1                            100      100       88         1

        CLASS   BANK2          
                cstackBANK2                         2F8      2F8        8         1
                dataBANK2                           200      200       95         1
                bssBANK2                            295      295       63         1

        CLASS   BANK3          
                cstackBANK3                         3C8      3C8       2E         1
                bssBANK3                            300      300       C8         1

        CLASS   BANK4          
                dataBANK4                           400      400       C8         1

        CLASS   BANK5          
                bssBANK5                            500      500       60         1

        CLASS   BANK6          

        CLASS   BANK7          

        CLASS   BANK8          

        CLASS   BANK9          

        CLASS   BANK10         

        CLASS   BANK11         

        CLASS   BANK12         

        CLASS   BANK13         

        CLASS   SFR            

        CLASS   BIGSFR         

        CLASS   CONFIG         
                config                           300000   300000        C         4

        CLASS   IDLOC          
                idloc                            200000   200000       10         5

        CLASS   EEDATA         
                eeprom_data                      310000   310000      360         0

        CLASS   FARRAM         

        CLASS   HEAP           

        CLASS   STACK          



SEGMENTS        Name                           Load    Length   Top    Selector   Space  Class

                reset_vec                      000000  000004  000004         0       0  CODE    
                cstackCOMRAM                   000001  00005F  000060         1       1  COMRAM  
                intcode                        000008  000006  00000E         4       0  CODE    
                intcodelo                      000018  000B07  000B1F         C       0  CODE    
                cstackBANK0                    000060  00006C  0000CC        60       1  BANK0   
                bssBANK1                       000100  000100  000200       100       1  BANK1   
                dataBANK2                      000200  000100  000300       200       1  BANK2   
                bssBANK3                       000300  0000F6  0003F6       300       1  BANK3   
                dataBANK4                      000400  0000C8  0004C8       400       1  BANK4   
                bssBANK5                       000500  000060  000560       500       1  BANK5   
                bssBIGRAM                      000560  0002D0  000830       560       1  BIGRAM  
                text6                          000B20  0018E9  002409       590       0  CODE    
                mediumconst                    00E3E6  001C1A  010000      71F3       0  MEDIUMCO
                text20                         010000  00FFFE  01FFFE      8000       0  CODE    
                eeprom_data                    310000  000360  310360    310000       0  EEDATA  


UNUSED ADDRESS RANGES

        Name                Unused          Largest block    Delta
        BANK0            0000CC-0000FF               34
        BANK10           000A00-000AFF              100
        BANK11           000B00-000BFF              100
        BANK12           000C00-000CFF              100
        BANK13           000D00-000DE9               EA
        BANK3            0003F6-0003FF                A
        BANK4            0004C8-0004FF               38
        BANK8            000830-0008FF               D0
        BANK9            000900-0009FF              100
        BIGRAM           0000CC-0000FF               34
                         0003F6-0003FF                A
                         0004C8-0004FF               38
                         000830-000DE9              5BA
        BIGSFR           000DEF-000FFF              211
        CODE             000004-000007                4
                         00000E-000017                A
                         000B1F-000B1F                1
                         002409-00E3E5             BFDD
                         01FFFE-01FFFF                2
        CONST            000004-000007                4
                         00000E-000017                A
                         000B1F-000B1F                1
                         002409-00E3E5             BFDD
                         01FFFE-01FFFF                2
        EEDATA           310360-3103FF               A0
        MEDIUMCONST      002409-00E3E5             BFDD
                         01FFFE-01FFFF                2
        RAM              0000CC-0000FF               34
                         0003F6-0003FF                A
                         0004C8-0004FF               38
                         000830-000DE9              100
        SFR              000DEF-000FFF              100
        SMALLCONST       002409-00E3E5              100
                         01FFFE-01FFFF                2

                                  Symbol Table

?___aodiv                                                 cstackBANK1  000188
?___aomod                                                 cstackBANK1  000188
?___awdiv                                                 cstackBANK1  000188
?___awmod                                                 cstackBANK1  00019A
?___lmul                                                  cstackBANK1  000188
?___lwdiv                                                 cstackBANK1  00018E
?___lwmod                                                 cstackBANK1  000188
?___wmul                                                  cstackBANK1  000188
?_abs                                                     cstackBANK1  00019A
?_ctoa                                                    cstackBANK1  000191
?_days                                                    cstackBANK1  00018D
?_dtoa                                                    cstackBANK1  0001A3
?_getADCResult                                            cstackBANK1  000188
?_pad                                                     cstackBANK1  000198
?_rand                                                    cstackBANK1  000194
?_readActiveSleepCountFromEeprom                          cstackBANK1  00018B
?_readRemainingFertigationOnPeriodFromEeprom              cstackBANK1  00018B
?_sprintf                                                 cstackBANK1  0001E0
?_strlen                                                  cstackBANK1  000188
?_strncmp                                                 cstackBANK1  000188
?_vfpfcnvrt                                               cstackBANK1  0001C7
?_vfprintf                                                cstackBANK1  0001D8
?i1_strncmp                                               cstackBANK0  00007B
?i2___aodiv                                               cstackCOMRAM 000001
?i2___aomod                                               cstackCOMRAM 000001
?i2_abs                                                   cstackCOMRAM 000013
?i2_ctoa                                                  cstackCOMRAM 00000A
?i2_dtoa                                                  cstackCOMRAM 00001C
?i2_pad                                                   cstackCOMRAM 000011
?i2_sprintf                                               cstackCOMRAM 000059
?i2_strlen                                                cstackCOMRAM 000001
?i2_strncmp                                               cstackCOMRAM 000001
?i2_vfpfcnvrt                                             cstackCOMRAM 000040
?i2_vfprintf                                              cstackCOMRAM 000051
LCDpulseEnableNeg@_data                                   cstackBANK1  00018D
LCDwritePCF8574@value                                     cstackBANK1  00018C
_ADACQ                                                    (abs)        000F5C
_ADACT                                                    (abs)        000F56
_ADCAP                                                    (abs)        000F5D
_ADCON0bits                                               (abs)        000F60
_ADCON1                                                   (abs)        000F59
_ADCON2                                                   (abs)        000F5A
_ADCON3                                                   (abs)        000F5B
_ADPCH                                                    (abs)        000F5F
_ADREF                                                    (abs)        000F58
_ADRESH                                                   (abs)        000F64
_ADRESL                                                   (abs)        000F63
_ADRPT                                                    (abs)        000F66
_ANSELA                                                   (abs)        000E92
_ANSELB                                                   (abs)        000E9A
_ANSELD                                                   (abs)        000EA7
_ANSELE                                                   (abs)        000EAF
_ANSELF                                                   (abs)        000EB4
_ANSELG                                                   (abs)        000EBC
_BAUD1CON                                                 (abs)        000F9E
_BAUD3CON                                                 (abs)        000EF0
_BSR                                                      (abs)        000FE0
_CCP1CONbits                                              (abs)        000FAB
_CCP2CONbits                                              (abs)        000FA7
_CCP3CONbits                                              (abs)        000F26
_CCP4CONbits                                              (abs)        000F22
_CCPR1                                                    (abs)        000FA9
_CCPR2                                                    (abs)        000FA5
_CCPR3                                                    (abs)        000F24
_CCPR4                                                    (abs)        000F20
_CCPTMRS0bits                                             (abs)        000FAD
_CPUDOZEbits                                              (abs)        000E42
_DeviceBurnStatus                                         bssBANK1     00013E
_INLVLA                                                   (abs)        000E8E
_INLVLB                                                   (abs)        000E96
_INLVLC                                                   (abs)        000E9E
_INLVLD                                                   (abs)        000EA3
_INLVLE                                                   (abs)        000EAB
_INLVLF                                                   (abs)        000EB0
_INLVLG                                                   (abs)        000EB8
_INLVLH                                                   (abs)        000EBD
_INTCONbits                                               (abs)        000FF2
_IOCBF                                                    (abs)        000E93
_IOCBF0                                                   (abs)        007498
_IOCBN                                                    (abs)        000E94
_IOCBP                                                    (abs)        000E95
_IOCEF                                                    (abs)        000EA8
_IOCEF2                                                   (abs)        007542
_IOCEF3                                                   (abs)        007543
_IOCEN                                                    (abs)        000EA9
_IOCEP                                                    (abs)        000EAA
_IPR0bits                                                 (abs)        000E1F
_IPR3bits                                                 (abs)        000E22
_IPR4bits                                                 (abs)        000E23
_IPR5bits                                                 (abs)        000E24
_LATA                                                     (abs)        000F79
_LATB                                                     (abs)        000F7A
_LATC                                                     (abs)        000F7B
_LATD                                                     (abs)        000F7C
_LATE                                                     (abs)        000F7D
_LATF                                                     (abs)        000F7E
_LATG                                                     (abs)        000F7F
_LATH                                                     (abs)        000F80
_LCDpulseEnableNeg                                        text116      002080
_LCDwritePCF8574                                          text117      0022A6
_LoraConnectionFailed                                     bssBANK1     00013A
_NVMADRH                                                  (abs)        000F75
_NVMADRL                                                  (abs)        000F74
_NVMCON1bits                                              (abs)        000F77
_NVMCON2                                                  (abs)        000F78
_NVMDAT                                                   (abs)        000F76
_NotDR1_84                                                mediumconst  00EE51
_NotDR2_84                                                mediumconst  00EE02
_NotDR3_67                                                mediumconst  00EF24
_NotDR4_72                                                mediumconst  00EEA0
_NotFert5_33                                              mediumconst  00F128
_NotFert6_33                                              mediumconst  00F10C
_NotFert7_70                                              mediumconst  00EEE3
_NotFert8_59                                              mediumconst  00EF62
_NotIrr4_30                                               mediumconst  00F178
_NotIrr5_30                                               mediumconst  00F15F
_NotIrr6_54                                               mediumconst  00F000
_NotIrr7_16                                               mediumconst  00EDD4
_NotIrr8_48                                               mediumconst  00F05C
_NotIrr9_48                                               mediumconst  00F031
_NotMS1_57                                                mediumconst  00EF98
_NotMotor1_55                                             mediumconst  00EFCC
_NotPh1_50                                                mediumconst  00EC6C
_NotPh2_72                                                mediumconst  00EB3E
_NotPh3_23                                                mediumconst  00ED9A
_NotPh6_22                                                mediumconst  00EDAE
_NotRTC1_30                                               mediumconst  00F144
_NotRTC2_6                                                mediumconst  00F2B5
_NotRTC3_7                                                mediumconst  00F27E
_NotRTC4_36                                               mediumconst  00F0EB
_NotRTC6_36                                               mediumconst  00F0CA
_NotSLV1_39                                               mediumconst  00F087
_NotSLV2_6                                                mediumconst  00F2AE
_NotSLV3_7                                                mediumconst  00F276
_NotSLV4_38                                               mediumconst  00F0A9
_NotSR01_59                                               mediumconst  00EBC3
_NotSR02_76                                               mediumconst  00E9D3
_NotSR03_73                                               mediumconst  00EA68
_NotSR04_75                                               mediumconst  00EA1E
_NotSR05_80                                               mediumconst  00E984
_NotSR06_72                                               mediumconst  00EAF7
_NotSR07_72                                               mediumconst  00EAB0
_NotSR08_36                                               mediumconst  00ECF0
_NotSR09_30                                               mediumconst  00ED7B
_NotSR10_35                                               mediumconst  00ED15
_NotSR11_40                                               mediumconst  00ECC7
_NotSR12_32                                               mediumconst  00ED5A
_NotSR13_32                                               mediumconst  00ED39
_NotSR14_58                                               mediumconst  00EBFF
_NotSR15_49                                               mediumconst  00EC3A
_ODCONA                                                   (abs)        000E90
_ODCONB                                                   (abs)        000E98
_ODCONC                                                   (abs)        000EA0
_ODCOND                                                   (abs)        000EA5
_ODCONE                                                   (abs)        000EAD
_ODCONF                                                   (abs)        000EB2
_ODCONG                                                   (abs)        000EBA
_ODCONH                                                   (abs)        000EBF
_OSCENbits                                                (abs)        000E47
_PCON0bits                                                (abs)        000FD7
_PIE0bits                                                 (abs)        000E29
_PIE3bits                                                 (abs)        000E2C
_PIE4bits                                                 (abs)        000E2D
_PIE5bits                                                 (abs)        000E2E
_PIR0bits                                                 (abs)        000E33
_PIR3bits                                                 (abs)        000E36
_PIR4bits                                                 (abs)        000E37
_PIR5bits                                                 (abs)        000E38
_PORTBbits                                                (abs)        000F8A
_PORTCbits                                                (abs)        000F8B
_PORTDbits                                                (abs)        000F8C
_PORTEbits                                                (abs)        000F8D
_PORTFbits                                                (abs)        000F8E
_PORTGbits                                                (abs)        000F8F
_PORTHbits                                                (abs)        000F90
_RC1REG                                                   (abs)        000F98
_RC1STA                                                   (abs)        000F9C
_RC1STAbits                                               (abs)        000F9C
_RC3PPS                                                   (abs)        000E65
_RC3REG                                                   (abs)        000EEA
_RC3STA                                                   (abs)        000EEE
_RC3STAbits                                               (abs)        000EEE
_RC4PPS                                                   (abs)        000E66
_RC6PPS                                                   (abs)        000E68
_RC7PPS                                                   (abs)        000E69
_RD5PPS                                                   (abs)        000E6F
_RD6PPS                                                   (abs)        000E70
_RE0PPS                                                   (abs)        000E72
_RE1PPS                                                   (abs)        000E73
_SLRCONA                                                  (abs)        000E8F
_SLRCONB                                                  (abs)        000E97
_SLRCONC                                                  (abs)        000E9F
_SLRCOND                                                  (abs)        000EA4
_SLRCONE                                                  (abs)        000EAC
_SLRCONF                                                  (abs)        000EB1
_SLRCONG                                                  (abs)        000EB9
_SLRCONH                                                  (abs)        000EBE
_SP1BRG                                                   (abs)        000F9A
_SP3BRG                                                   (abs)        000EEC
_SSP1ADD                                                  (abs)        000F92
_SSP1BUF                                                  (abs)        000F91
_SSP1CLKPPS                                               (abs)        000E19
_SSP1CON1                                                 (abs)        000F95
_SSP1CON2                                                 (abs)        000F96
_SSP1CON2bits                                             (abs)        000F96
_SSP1DATPPS                                               (abs)        000E1A
_SSP1STAT                                                 (abs)        000F94
_SSP1STATbits                                             (abs)        000F94
_SSP2ADD                                                  (abs)        000ED6
_SSP2BUF                                                  (abs)        000ED5
_SSP2CLKPPS                                               (abs)        000E1C
_SSP2CON1                                                 (abs)        000ED9
_SSP2CON2                                                 (abs)        000EDA
_SSP2CON2bits                                             (abs)        000EDA
_SSP2DATPPS                                               (abs)        000E1D
_SSP2STAT                                                 (abs)        000ED8
_SSP2STATbits                                             (abs)        000ED8
_SmsAU4_63                                                mediumconst  00EB83
_T0CON0                                                   (abs)        000FD5
_T0CON0bits                                               (abs)        000FD5
_T0CON1                                                   (abs)        000FD6
_T1CON                                                    (abs)        000FCF
_T1CONbits                                                (abs)        000FCF
_T2CLKCONbits                                             (abs)        000FBF
_T2CONbits                                                (abs)        000FBD
_T2PR                                                     (abs)        000FBC
_T2TMR                                                    (abs)        000FBB
_T3CON                                                    (abs)        000FC9
_T3CONbits                                                (abs)        000FC9
_TMR0H                                                    (abs)        000FD4
_TMR0L                                                    (abs)        000FD3
_TMR1CLK                                                  (abs)        000FD2
_TMR1H                                                    (abs)        000FCE
_TMR1L                                                    (abs)        000FCD
_TMR3CLK                                                  (abs)        000FCC
_TMR3H                                                    (abs)        000FC8
_TMR3L                                                    (abs)        000FC7
_TRISA                                                    (abs)        000F81
_TRISB                                                    (abs)        000F82
_TRISC                                                    (abs)        000F83
_TRISD                                                    (abs)        000F84
_TRISE                                                    (abs)        000F85
_TRISF                                                    (abs)        000F86
_TRISG                                                    (abs)        000F87
_TRISH                                                    (abs)        000F88
_TX1REG                                                   (abs)        000F99
_TX1STA                                                   (abs)        000F9D
_TX3REG                                                   (abs)        000EEB
_TX3STA                                                   (abs)        000EEF
_Timer0Overflow                                           bssBANK0     0000BE
_Timer1Overflow                                           bssBANK1     000155
_Timer3Overflow                                           bssBANK1     000154
_WDTCON0bits                                              (abs)        000E3D
_WPUA                                                     (abs)        000E91
_WPUB                                                     (abs)        000E99
_WPUC                                                     (abs)        000EA1
_WPUD                                                     (abs)        000EA6
_WPUE                                                     (abs)        000EAE
_WPUF                                                     (abs)        000EB3
_WPUG                                                     (abs)        000EBB
_WPUH                                                     (abs)        000EC0
__HRAM                                                    (abs)        000000
__Habs1                                                   abs1         000000
__Hbank0                                                  bank0        000000
__Hbank1                                                  bank1        000000
__Hbank10                                                 bank10       000000
__Hbank11                                                 bank11       000000
__Hbank12                                                 bank12       000000
__Hbank13                                                 bank13       000000
__Hbank2                                                  bank2        000000
__Hbank3                                                  bank3        000000
__Hbank4                                                  bank4        000000
__Hbank5                                                  bank5        000000
__Hbank6                                                  bank6        000000
__Hbank7                                                  bank7        000000
__Hbank8                                                  bank8        000000
__Hbank9                                                  bank9        000000
__Hbigbss                                                 bigbss       000000
__Hbigdata                                                bigdata      000000
__Hbigram                                                 bigram       000000
__Hbigsfr                                                 bigsfr       000000
__Hbss                                                    bss          000000
__HbssBANK0                                               bssBANK0     000000
__HbssBANK1                                               bssBANK1     000000
__HbssBANK2                                               bssBANK2     000000
__HbssBANK3                                               bssBANK3     000000
__HbssBANK5                                               bssBANK5     000000
__HbssBIGRAM                                              bssBIGRAM    000000
__Hcinit                                                  cinit        000000
__Hclrtext                                                clrtext      000000
__Hcomram                                                 comram       000000
__Hconfig                                                 config       30000C
__Hconst                                                  const        000000
__HcstackBANK0                                            cstackBANK0  000000
__HcstackBANK1                                            cstackBANK1  000000
__HcstackBANK2                                            cstackBANK2  000000
__HcstackBANK3                                            cstackBANK3  000000
__HcstackCOMRAM                                           cstackCOMRAM 000000
__Hdata                                                   data         000000
__HdataBANK1                                              dataBANK1    000000
__HdataBANK2                                              dataBANK2    000000
__HdataBANK4                                              dataBANK4    000000
__Heeprom_data                                            eeprom_data  310360
__Hfarbss                                                 farbss       000000
__Hfardata                                                fardata      000000
__Hheap                                                   heap         000000
__Hibigdata                                               ibigdata     000000
__Hidata                                                  idata        000000
__HidataBANK1                                             idataBANK1   000000
__HidataBANK2                                             idataBANK2   000000
__HidataBANK4                                             idataBANK4   000000
__Hidloc                                                  idloc        200010
__Hifardata                                               ifardata     000000
__Hinit                                                   init         00069A
__Hintcode                                                intcode      00000E
__Hintcode_body                                           intcode_body 000000
__Hintcodelo                                              intcodelo    000696
__Hintentry                                               intentry     000000
__Hintret                                                 intret       000000
__Hintsave_regs                                           intsave_regs 000000
__Hirdata                                                 irdata       000000
__Hmediumconst                                            mediumconst  010000
__HnvFARRAM                                               nvFARRAM     000000
__Hnvbit                                                  nvbit        000000
__Hnvrram                                                 nvrram       000000
__Hparam                                                  rparam       000000
__Hpowerup                                                powerup      000696
__Hram                                                    ram          000000
__Hramtop                                                 ramtop       000E00
__Hrbit                                                   rbit         000000
__Hrbss                                                   rbss         000000
__Hrdata                                                  rdata        000000
__Hreset_vec                                              reset_vec    000004
__Hrparam                                                 rparam       000000
__Hsfr                                                    sfr          000000
__Hsmallconst                                             smallconst   000000
__Hspace_0                                                (abs)        310360
__Hspace_1                                                (abs)        000830
__Hspace_2                                                (abs)        000000
__Hspace_4                                                (abs)        60000C
__Hstack                                                  stack        000000
__Hstruct                                                 struct       000000
__Htemp                                                   temp         000060
__Htext                                                   text         000000
__Htext0                                                  text0        000000
__Htext1                                                  text1        000000
__Htext10                                                 text10       000000
__Htext100                                                text100      000000
__Htext101                                                text101      000000
__Htext102                                                text102      000000
__Htext103                                                text103      000000
__Htext104                                                text104      000000
__Htext105                                                text105      000000
__Htext106                                                text106      000000
__Htext107                                                text107      000000
__Htext108                                                text108      000000
__Htext109                                                text109      000000
__Htext11                                                 text11       000000
__Htext110                                                text110      000000
__Htext111                                                text111      000000
__Htext112                                                text112      000000
__Htext113                                                text113      000000
__Htext114                                                text114      000000
__Htext115                                                text115      000000
__Htext116                                                text116      000000
__Htext117                                                text117      000000
__Htext118                                                text118      000000
__Htext119                                                text119      000000
__Htext12                                                 text12       000000
__Htext120                                                text120      000000
__Htext121                                                text121      000000
__Htext122                                                text122      000000
__Htext123                                                text123      000000
__Htext124                                                text124      000000
__Htext125                                                text125      000000
__Htext126                                                text126      000000
__Htext127                                                text127      000000
__Htext128                                                text128      000000
__Htext129                                                text129      000000
__Htext13                                                 text13       000000
__Htext130                                                text130      000000
__Htext131                                                text131      000000
__Htext132                                                text132      000000
__Htext133                                                text133      000000
__Htext135                                                text135      000000
__Htext136                                                text136      000000
__Htext138                                                text138      000000
__Htext139                                                text139      000000
__Htext14                                                 text14       000000
__Htext140                                                text140      000000
__Htext141                                                text141      000000
__Htext142                                                text142      000000
__Htext143                                                text143      000000
__Htext144                                                text144      000000
__Htext145                                                text145      000000
__Htext146                                                text146      000000
__Htext147                                                text147      000000
__Htext148                                                text148      000000
__Htext149                                                text149      000000
__Htext15                                                 text15       000000
__Htext150                                                text150      000000
__Htext151                                                text151      000000
__Htext152                                                text152      000000
__Htext153                                                text153      000000
__Htext154                                                text154      000000
__Htext155                                                text155      000000
__Htext156                                                text156      000000
__Htext157                                                text157      000000
__Htext158                                                text158      000000
__Htext159                                                text159      000000
__Htext16                                                 text16       000000
__Htext160                                                text160      000000
__Htext161                                                text161      000000
__Htext162                                                text162      000000
__Htext163                                                text163      000000
__Htext164                                                text164      000000
__Htext165                                                text165      000000
__Htext166                                                text166      000000
__Htext167                                                text167      000000
__Htext168                                                text168      000000
__Htext169                                                text169      000000
__Htext17                                                 text17       000000
__Htext170                                                text170      000000
__Htext171                                                text171      000000
__Htext172                                                text172      000000
__Htext173                                                text173      000000
__Htext18                                                 text18       000000
__Htext19                                                 text19       000000
__Htext2                                                  text2        000000
__Htext20                                                 text20       000000
__Htext21                                                 text21       000000
__Htext22                                                 text22       000000
__Htext23                                                 text23       000000
__Htext24                                                 text24       000000
__Htext25                                                 text25       000000
__Htext26                                                 text26       000000
__Htext27                                                 text27       000000
__Htext28                                                 text28       000000
__Htext29                                                 text29       000000
__Htext3                                                  text3        000000
__Htext30                                                 text30       000000
__Htext31                                                 text31       000000
__Htext32                                                 text32       000000
__Htext33                                                 text33       000000
__Htext34                                                 text34       000000
__Htext35                                                 text35       000000
__Htext36                                                 text36       000000
__Htext37                                                 text37       000000
__Htext38                                                 text38       000000
__Htext39                                                 text39       000000
__Htext4                                                  text4        000000
__Htext40                                                 text40       000000
__Htext41                                                 text41       000000
__Htext42                                                 text42       000000
__Htext43                                                 text43       000000
__Htext44                                                 text44       000000
__Htext45                                                 text45       000000
__Htext46                                                 text46       000000
__Htext47                                                 text47       000000
__Htext48                                                 text48       000000
__Htext49                                                 text49       000000
__Htext5                                                  text5        000000
__Htext50                                                 text50       000000
__Htext51                                                 text51       000000
__Htext52                                                 text52       000000
__Htext53                                                 text53       000000
__Htext54                                                 text54       000000
__Htext55                                                 text55       000000
__Htext56                                                 text56       000000
__Htext57                                                 text57       000000
__Htext58                                                 text58       000000
__Htext59                                                 text59       000000
__Htext6                                                  text6        000000
__Htext60                                                 text60       000000
__Htext61                                                 text61       000000
__Htext62                                                 text62       000000
__Htext63                                                 text63       000000
__Htext64                                                 text64       000000
__Htext65                                                 text65       000000
__Htext66                                                 text66       000000
__Htext67                                                 text67       000000
__Htext68                                                 text68       000000
__Htext69                                                 text69       000000
__Htext7                                                  text7        000000
__Htext70                                                 text70       000000
__Htext71                                                 text71       000000
__Htext72                                                 text72       000000
__Htext73                                                 text73       000000
__Htext74                                                 text74       000000
__Htext75                                                 text75       000000
__Htext76                                                 text76       000000
__Htext77                                                 text77       000000
__Htext78                                                 text78       000000
__Htext79                                                 text79       000000
__Htext8                                                  text8        000000
__Htext80                                                 text80       000000
__Htext81                                                 text81       000000
__Htext82                                                 text82       000000
__Htext83                                                 text83       000000
__Htext84                                                 text84       000000
__Htext85                                                 text85       000000
__Htext86                                                 text86       000000
__Htext87                                                 text87       000000
__Htext88                                                 text88       000000
__Htext89                                                 text89       000000
__Htext9                                                  text9        000000
__Htext90                                                 text90       000000
__Htext91                                                 text91       000000
__Htext92                                                 text92       000000
__Htext93                                                 text93       000000
__Htext94                                                 text94       000000
__Htext95                                                 text95       000000
__Htext96                                                 text96       000000
__Htext97                                                 text97       000000
__Htext98                                                 text98       000000
__Htext99                                                 text99       000000
__LRAM                                                    (abs)        000001
__Labs1                                                   abs1         000000
__Lbank0                                                  bank0        000000
__Lbank1                                                  bank1        000000
__Lbank10                                                 bank10       000000
__Lbank11                                                 bank11       000000
__Lbank12                                                 bank12       000000
__Lbank13                                                 bank13       000000
__Lbank2                                                  bank2        000000
__Lbank3                                                  bank3        000000
__Lbank4                                                  bank4        000000
__Lbank5                                                  bank5        000000
__Lbank6                                                  bank6        000000
__Lbank7                                                  bank7        000000
__Lbank8                                                  bank8        000000
__Lbank9                                                  bank9        000000
__Lbigbss                                                 bigbss       000000
__Lbigdata                                                bigdata      000000
__Lbigram                                                 bigram       000000
__Lbigsfr                                                 bigsfr       000000
__Lbss                                                    bss          000000
__LbssBANK0                                               bssBANK0     000000
__LbssBANK1                                               bssBANK1     000000
__LbssBANK2                                               bssBANK2     000000
__LbssBANK3                                               bssBANK3     000000
__LbssBANK5                                               bssBANK5     000000
__LbssBIGRAM                                              bssBIGRAM    000000
__Lcinit                                                  cinit        000000
__Lclrtext                                                clrtext      000000
__Lcomram                                                 comram       000000
__Lconfig                                                 config       000000
__Lconst                                                  const        000000
__LcstackBANK0                                            cstackBANK0  000000
__LcstackBANK1                                            cstackBANK1  000000
__LcstackBANK2                                            cstackBANK2  000000
__LcstackBANK3                                            cstackBANK3  000000
__LcstackCOMRAM                                           cstackCOMRAM 000000
__Ldata                                                   data         000000
__LdataBANK1                                              dataBANK1    000000
__LdataBANK2                                              dataBANK2    000000
__LdataBANK4                                              dataBANK4    000000
__Leeprom_data                                            eeprom_data  310000
__Lfarbss                                                 farbss       000000
__Lfardata                                                fardata      000000
__Lheap                                                   heap         000000
__Libigdata                                               ibigdata     000000
__Lidata                                                  idata        000000
__LidataBANK1                                             idataBANK1   000000
__LidataBANK2                                             idataBANK2   000000
__LidataBANK4                                             idataBANK4   000000
__Lidloc                                                  idloc        000000
__Lifardata                                               ifardata     000000
__Linit                                                   init         000696
__Lintcode                                                intcode      000008
__Lintcode_body                                           intcode_body 000000
__Lintcodelo                                              intcodelo    000018
__Lintentry                                               intentry     000000
__Lintret                                                 intret       000000
__Lintsave_regs                                           intsave_regs 000000
__Lirdata                                                 irdata       000000
__Lmediumconst                                            mediumconst  00E3E6
__LnvFARRAM                                               nvFARRAM     000000
__Lnvbit                                                  nvbit        000000
__Lnvrram                                                 nvrram       000000
__Lparam                                                  rparam       000000
__Lpowerup                                                powerup      000696
__Lram                                                    ram          000000
__Lramtop                                                 ramtop       000E00
__Lrbit                                                   rbit         000000
__Lrbss                                                   rbss         000000
__Lrdata                                                  rdata        000000
__Lreset_vec                                              reset_vec    000000
__Lrparam                                                 rparam       000000
__Lsfr                                                    sfr          000000
__Lsmallconst                                             smallconst   000000
__Lspace_0                                                (abs)        000000
__Lspace_1                                                (abs)        000000
__Lspace_2                                                (abs)        000000
__Lspace_4                                                (abs)        000000
__Lstack                                                  stack        000000
__Lstruct                                                 struct       000000
__Ltemp                                                   temp         00005F
__Ltext                                                   text         000000
__Ltext0                                                  text0        000000
__Ltext1                                                  text1        000000
__Ltext10                                                 text10       000000
__Ltext100                                                text100      000000
__Ltext101                                                text101      000000
__Ltext102                                                text102      000000
__Ltext103                                                text103      000000
__Ltext104                                                text104      000000
__Ltext105                                                text105      000000
__Ltext106                                                text106      000000
__Ltext107                                                text107      000000
__Ltext108                                                text108      000000
__Ltext109                                                text109      000000
__Ltext11                                                 text11       000000
__Ltext110                                                text110      000000
__Ltext111                                                text111      000000
__Ltext112                                                text112      000000
__Ltext113                                                text113      000000
__Ltext114                                                text114      000000
__Ltext115                                                text115      000000
__Ltext116                                                text116      000000
__Ltext117                                                text117      000000
__Ltext118                                                text118      000000
__Ltext119                                                text119      000000
__Ltext12                                                 text12       000000
__Ltext120                                                text120      000000
__Ltext121                                                text121      000000
__Ltext122                                                text122      000000
__Ltext123                                                text123      000000
__Ltext124                                                text124      000000
__Ltext125                                                text125      000000
__Ltext126                                                text126      000000
__Ltext127                                                text127      000000
__Ltext128                                                text128      000000
__Ltext129                                                text129      000000
__Ltext13                                                 text13       000000
__Ltext130                                                text130      000000
__Ltext131                                                text131      000000
__Ltext132                                                text132      000000
__Ltext133                                                text133      000000
__Ltext135                                                text135      000000
__Ltext136                                                text136      000000
__Ltext138                                                text138      000000
__Ltext139                                                text139      000000
__Ltext14                                                 text14       000000
__Ltext140                                                text140      000000
__Ltext141                                                text141      000000
__Ltext142                                                text142      000000
__Ltext143                                                text143      000000
__Ltext144                                                text144      000000
__Ltext145                                                text145      000000
__Ltext146                                                text146      000000
__Ltext147                                                text147      000000
__Ltext148                                                text148      000000
__Ltext149                                                text149      000000
__Ltext15                                                 text15       000000
__Ltext150                                                text150      000000
__Ltext151                                                text151      000000
__Ltext152                                                text152      000000
__Ltext153                                                text153      000000
__Ltext154                                                text154      000000
__Ltext155                                                text155      000000
__Ltext156                                                text156      000000
__Ltext157                                                text157      000000
__Ltext158                                                text158      000000
__Ltext159                                                text159      000000
__Ltext16                                                 text16       000000
__Ltext160                                                text160      000000
__Ltext161                                                text161      000000
__Ltext162                                                text162      000000
__Ltext163                                                text163      000000
__Ltext164                                                text164      000000
__Ltext165                                                text165      000000
__Ltext166                                                text166      000000
__Ltext167                                                text167      000000
__Ltext168                                                text168      000000
__Ltext169                                                text169      000000
__Ltext17                                                 text17       000000
__Ltext170                                                text170      000000
__Ltext171                                                text171      000000
__Ltext172                                                text172      000000
__Ltext173                                                text173      000000
__Ltext18                                                 text18       000000
__Ltext19                                                 text19       000000
__Ltext2                                                  text2        000000
__Ltext20                                                 text20       000000
__Ltext21                                                 text21       000000
__Ltext22                                                 text22       000000
__Ltext23                                                 text23       000000
__Ltext24                                                 text24       000000
__Ltext25                                                 text25       000000
__Ltext26                                                 text26       000000
__Ltext27                                                 text27       000000
__Ltext28                                                 text28       000000
__Ltext29                                                 text29       000000
__Ltext3                                                  text3        000000
__Ltext30                                                 text30       000000
__Ltext31                                                 text31       000000
__Ltext32                                                 text32       000000
__Ltext33                                                 text33       000000
__Ltext34                                                 text34       000000
__Ltext35                                                 text35       000000
__Ltext36                                                 text36       000000
__Ltext37                                                 text37       000000
__Ltext38                                                 text38       000000
__Ltext39                                                 text39       000000
__Ltext4                                                  text4        000000
__Ltext40                                                 text40       000000
__Ltext41                                                 text41       000000
__Ltext42                                                 text42       000000
__Ltext43                                                 text43       000000
__Ltext44                                                 text44       000000
__Ltext45                                                 text45       000000
__Ltext46                                                 text46       000000
__Ltext47                                                 text47       000000
__Ltext48                                                 text48       000000
__Ltext49                                                 text49       000000
__Ltext5                                                  text5        000000
__Ltext50                                                 text50       000000
__Ltext51                                                 text51       000000
__Ltext52                                                 text52       000000
__Ltext53                                                 text53       000000
__Ltext54                                                 text54       000000
__Ltext55                                                 text55       000000
__Ltext56                                                 text56       000000
__Ltext57                                                 text57       000000
__Ltext58                                                 text58       000000
__Ltext59                                                 text59       000000
__Ltext6                                                  text6        000000
__Ltext60                                                 text60       000000
__Ltext61                                                 text61       000000
__Ltext62                                                 text62       000000
__Ltext63                                                 text63       000000
__Ltext64                                                 text64       000000
__Ltext65                                                 text65       000000
__Ltext66                                                 text66       000000
__Ltext67                                                 text67       000000
__Ltext68                                                 text68       000000
__Ltext69                                                 text69       000000
__Ltext7                                                  text7        000000
__Ltext70                                                 text70       000000
__Ltext71                                                 text71       000000
__Ltext72                                                 text72       000000
__Ltext73                                                 text73       000000
__Ltext74                                                 text74       000000
__Ltext75                                                 text75       000000
__Ltext76                                                 text76       000000
__Ltext77                                                 text77       000000
__Ltext78                                                 text78       000000
__Ltext79                                                 text79       000000
__Ltext8                                                  text8        000000
__Ltext80                                                 text80       000000
__Ltext81                                                 text81       000000
__Ltext82                                                 text82       000000
__Ltext83                                                 text83       000000
__Ltext84                                                 text84       000000
__Ltext85                                                 text85       000000
__Ltext86                                                 text86       000000
__Ltext87                                                 text87       000000
__Ltext88                                                 text88       000000
__Ltext89                                                 text89       000000
__Ltext9                                                  text9        000000
__Ltext90                                                 text90       000000
__Ltext91                                                 text91       000000
__Ltext92                                                 text92       000000
__Ltext93                                                 text93       000000
__Ltext94                                                 text94       000000
__Ltext95                                                 text95       000000
__Ltext96                                                 text96       000000
__Ltext97                                                 text97       000000
__Ltext98                                                 text98       000000
__Ltext99                                                 text99       000000
__S0                                                      (abs)        310360
__S1                                                      (abs)        000830
__S4                                                      (abs)        000000
__S5                                                      (abs)        000000
___aodiv                                                  text101      01E0D2
___aodiv@counter                                          cstackBANK1  000198
___aodiv@dividend                                         cstackBANK1  000188
___aodiv@divisor                                          cstackBANK1  000190
___aodiv@quotient                                         cstackBANK1  00019A
___aodiv@sign                                             cstackBANK1  000199
___aomod                                                  text100      01E6C8
___aomod@counter                                          cstackBANK1  000198
___aomod@dividend                                         cstackBANK1  000188
___aomod@divisor                                          cstackBANK1  000190
___aomod@sign                                             cstackBANK1  000199
___awdiv                                                  text106      01FB98
___awdiv@counter                                          cstackBANK1  00018C
___awdiv@dividend                                         cstackBANK1  000188
___awdiv@divisor                                          cstackBANK1  00018A
___awdiv@quotient                                         cstackBANK1  00018E
___awdiv@sign                                             cstackBANK1  00018D
___awmod                                                  text82       01FE98
___awmod@counter                                          cstackBANK1  00019E
___awmod@dividend                                         cstackBANK1  00019A
___awmod@divisor                                          cstackBANK1  00019C
___awmod@sign                                             cstackBANK1  00019F
___heap_hi                                                (abs)        000000
___heap_lo                                                (abs)        000000
___inthi_sp                                               stack        000000
___intlo_sp                                               stack        000000
___lmul                                                   text12       001154
___lmul@multiplicand                                      cstackBANK1  00018C
___lmul@multiplier                                        cstackBANK1  000188
___lmul@product                                           cstackBANK1  000190
___lwdiv                                                  text81       000F8A
___lwdiv@counter                                          cstackBANK1  000192
___lwdiv@dividend                                         cstackBANK1  00018E
___lwdiv@divisor                                          cstackBANK1  000190
___lwdiv@quotient                                         cstackBANK1  000193
___lwmod                                                  text132      001290
___lwmod@counter                                          cstackBANK1  00018C
___lwmod@dividend                                         cstackBANK1  000188
___lwmod@divisor                                          cstackBANK1  00018A
___param_bank                                             (abs)        000000
___rparam_used                                            (abs)        000001
___sp                                                     stack        000000
___wmul                                                   text79       0020D2
___wmul@multiplicand                                      cstackBANK1  00018A
___wmul@multiplier                                        cstackBANK1  000188
___wmul@product                                           cstackBANK1  00018C
__accesstop                                               (abs)        000060
__activetblptr                                            (abs)        000003
__displaycontrol                                          bssBANK1     000129
__displayfunction                                         bssBANK1     00012A
__end_of_LCDpulseEnableNeg                                text116      0020AA
__end_of_LCDwritePCF8574                                  text117      0022BA
__end_of_NotDR1_84                                        mediumconst  00EEA0
__end_of_NotDR2_84                                        mediumconst  00EE51
__end_of_NotDR3_67                                        mediumconst  00EF62
__end_of_NotDR4_72                                        mediumconst  00EEE3
__end_of_NotFert5_33                                      mediumconst  00F144
__end_of_NotFert6_33                                      mediumconst  00F128
__end_of_NotFert7_70                                      mediumconst  00EF24
__end_of_NotFert8_59                                      mediumconst  00EF98
__end_of_NotIrr4_30                                       mediumconst  00F191
__end_of_NotIrr5_30                                       mediumconst  00F178
__end_of_NotIrr6_54                                       mediumconst  00F031
__end_of_NotIrr7_16                                       mediumconst  00EDE3
__end_of_NotIrr8_48                                       mediumconst  00F087
__end_of_NotIrr9_48                                       mediumconst  00F05C
__end_of_NotMS1_57                                        mediumconst  00EFCC
__end_of_NotMotor1_55                                     mediumconst  00F000
__end_of_NotPh1_50                                        mediumconst  00EC9B
__end_of_NotPh2_72                                        mediumconst  00EB83
__end_of_NotPh3_23                                        mediumconst  00EDAE
__end_of_NotPh6_22                                        mediumconst  00EDC1
__end_of_NotRTC1_30                                       mediumconst  00F15F
__end_of_NotRTC2_6                                        mediumconst  00F2BC
__end_of_NotRTC3_7                                        mediumconst  00F286
__end_of_NotRTC4_36                                       mediumconst  00F10C
__end_of_NotRTC6_36                                       mediumconst  00F0EB
__end_of_NotSLV1_39                                       mediumconst  00F0A9
__end_of_NotSLV2_6                                        mediumconst  00F2B5
__end_of_NotSLV3_7                                        mediumconst  00F27E
__end_of_NotSLV4_38                                       mediumconst  00F0CA
__end_of_NotSR01_59                                       mediumconst  00EBFF
__end_of_NotSR02_76                                       mediumconst  00EA1E
__end_of_NotSR03_73                                       mediumconst  00EAB0
__end_of_NotSR04_75                                       mediumconst  00EA68
__end_of_NotSR05_80                                       mediumconst  00E9D3
__end_of_NotSR06_72                                       mediumconst  00EB3E
__end_of_NotSR07_72                                       mediumconst  00EAF7
__end_of_NotSR08_36                                       mediumconst  00ED15
__end_of_NotSR09_30                                       mediumconst  00ED9A
__end_of_NotSR10_35                                       mediumconst  00ED39
__end_of_NotSR11_40                                       mediumconst  00ECF0
__end_of_NotSR12_32                                       mediumconst  00ED7B
__end_of_NotSR13_32                                       mediumconst  00ED5A
__end_of_NotSR14_58                                       mediumconst  00EC3A
__end_of_NotSR15_49                                       mediumconst  00EC6C
__end_of_SmsAU4_63                                        mediumconst  00EBC3
__end_of___aodiv                                          text101      01E25C
__end_of___aomod                                          text100      01E82E
__end_of___awdiv                                          text106      01FC5E
__end_of___awmod                                          text82       01FF4A
__end_of___lmul                                           text12       0011C0
__end_of___lwdiv                                          text81       001000
__end_of___lwmod                                          text132      0012F6
__end_of___wmul                                           text79       0020FA
__end_of__initialization                                  cinit        01FDD4
__end_of_abs                                              text99       001BF2
__end_of_ack                                              mediumconst  00F322
__end_of_actionsOnDueValve                                text62       0178D4
__end_of_actionsOnSleepCountFinish                        text54       013AAC
__end_of_actionsOnSystemReset                             text3        01545C
__end_of_activateValve                                    text71       01B8E0
__end_of_active                                           mediumconst  00F2DF
__end_of_admin                                            mediumconst  00F33C
__end_of_alive                                            mediumconst  00F2EC
__end_of_alive1                                           mediumconst  00F30A
__end_of_bcd2Decimal                                      text131      0021CE
__end_of_calibrateMotorCurrent                            text36       01AF4C
__end_of_checkResetType                                   text53       01EEBA
__end_of_clearDecodedString                               text80       001E9A
__end_of_clearFieldByte                                   text133      001EFE
__end_of_clearGsmResponse                                 text35       001D96
__end_of_clearStringToDecode                              text34       001E68
__end_of_clearTempBytesString                             text111      001ECC
__end_of_cmd10_10                                         mediumconst  00F230
__end_of_cmd11_11                                         mediumconst  00F20E
__end_of_cmd12_13                                         mediumconst  00F1C1
__end_of_cmd13_8                                          mediumconst  00F26D
__end_of_cmd14_11                                         mediumconst  00F202
__end_of_cmd15_6                                          mediumconst  00F2C3
__end_of_cmd16_9                                          mediumconst  00F250
__end_of_cmd17_11                                         mediumconst  00F1F6
__end_of_cmd18_12                                         mediumconst  00F1EA
__end_of_cmd18_7                                          mediumconst  00F28E
__end_of_cmd19_10                                         mediumconst  00F225
__end_of_cmd1_6                                           mediumconst  00F2CA
__end_of_cmd2_9                                           mediumconst  00F264
__end_of_cmd3_9                                           mediumconst  00F25A
__end_of_cmd4_7                                           mediumconst  00F296
__end_of_cmd5_8                                           mediumconst  00F276
__end_of_cmd6_10                                          mediumconst  00F23B
__end_of_cmd7_17                                          mediumconst  00F1A3
__end_of_cmd8_13                                          mediumconst  00F1CF
__end_of_cmd9_11                                          mediumconst  00F21A
__end_of_cmqttError                                       mediumconst  00F1DD
__end_of_configureController                              text48       01C8DC
__end_of_configureMQTT                                    text47       0171AC
__end_of_countryCode                                      mediumconst  00EDFF
__end_of_ct                                               mediumconst  00F32E
__end_of_ctoa                                             text102      01F1BE
__end_of_dactive                                          mediumconst  00F2A6
__end_of_days                                             text2        01EFD6
__end_of_deActivateValve                                  text70       01DD9C
__end_of_decimal2BCD                                      text33       001CB0
__end_of_deepSleep                                        text37       01A4FA
__end_of_disable                                          mediumconst  00F2AE
__end_of_displayIcon                                      text66       001D28
__end_of_doDryRunAction                                   text44       016964
__end_of_doLoraSlaveInActiveAction                        text43       0193E6
__end_of_doLowPhaseAction                                 text42       01DBFA
__end_of_doPhaseFailureAction                             text41       01E0D2
__end_of_dtoa                                             text95       01CBD8
__end_of_eepromAddress                                    mediumconst  00ECC7
__end_of_eepromRead                                       text64       002148
__end_of_eepromWrite                                      text86       001E36
__end_of_enable                                           mediumconst  00F2E6
__end_of_error                                            mediumconst  00F2F2
__end_of_extract                                          mediumconst  00F29E
__end_of_extractReceivedSms                               text20       012B96
__end_of_fdata                                            mediumconst  00F304
__end_of_feed                                             mediumconst  00F314
__end_of_feedTimeInRTC                                    text32       000A8A
__end_of_fetchDigits                                      text78       001154
__end_of_fetchTimefromRTC                                 text124      01FE98
__end_of_fputc                                            text103      01F7AE
__end_of_fputs                                            text98       001B6C
__end_of_getADCResult                                     text40       001ADC
__end_of_getDateFromGSM                                   text13       01BD5A
__end_of_getDueDate                                       text123      01AA26
__end_of_getct                                            mediumconst  00F32A
__end_of_getfreq                                          mediumconst  00F30F
__end_of_hold                                             mediumconst  00F31E
__end_of_idle                                             mediumconst  00EDFB
__end_of_inject                                           mediumconst  00EDF6
__end_of_isFieldMoistureSensorWetLora                     text69       00089C
__end_of_isLoraResponseAck                                text76       01C1A2
__end_of_isMotorInNoLoad                                  text38       01F2A0
__end_of_isNumber                                         text77       001FF6
__end_of_isRTCBatteryDrained                              text18       0009E6
__end_of_lcdClear                                         text52       00218E
__end_of_lcdClearLine                                     text107      0021AE
__end_of_lcdCommandWrite                                  text110      002344
__end_of_lcdCreateChar                                    text68       0016B8
__end_of_lcdDataWrite                                     text113      002356
__end_of_lcdDisplayOff                                    text51       0023CC
__end_of_lcdDisplayOn                                     text50       0023BE
__end_of_lcdInit                                          text49       01EC48
__end_of_lcdSend                                          text114      002054
__end_of_lcdSetCursor                                     text109      001488
__end_of_lcdWrite4Bits                                    text115      002274
__end_of_lcdWriteChar                                     text67       0023DA
__end_of_lcdWriteString                                   text108      001C32
__end_of_lcdWriteStringAtCenter                           text105      01F53E
__end_of_lcdWriteStringIndex                              text112      001CEE
__end_of_lcd_i2cStart                                     text122      00237A
__end_of_lcd_i2cStop                                      text121      002368
__end_of_lcd_i2cWait                                      text120      002026
__end_of_lcd_i2cWrite                                     text119      002226
__end_of_lcd_i2cWriteByteSingleReg                        text118      000DF8
__end_of_loadDataFromEeprom                               text15       0186B2
__end_of_lowbattery                                       mediumconst  00F1B3
__end_of_main                                             text0        01D3D0
__end_of_map                                              mediumconst  00F332
__end_of_master                                           mediumconst  00F2D8
__end_of_mqttConnect                                      mediumconst  00EDD4
__end_of_mqtt_ca                                          mediumconst  00E984
__end_of_off                                              mediumconst  00F326
__end_of_ok                                               mediumconst  00EE02
__end_of_on                                               mediumconst  00F339
__end_of_pad                                              text96       01F6E2
__end_of_phaseFailure                                     text14       001D60
__end_of_powerOffMotor                                    text46       000D6E
__end_of_powerOnMotor                                     text65       000E80
__end_of_publishNotification                              text87       0199AC
__end_of_publishResponse                                  text30       01B42E
__end_of_putch                                            text104      01FFFC
__end_of_rand                                             text11       0010E6
__end_of_randomPasswordGeneration                         text9        01FFFA
__end_of_readActiveSleepCountFromEeprom                   text61       01F464
__end_of_readDeviceProgramStatusFromEeprom                text8        001604
__end_of_readFieldIrrigationValveNoFromEeprom             text63       001424
__end_of_readMotorLoadValuesFromEeprom                    text17       01DF38
__end_of_readRemainingFertigationOnPeriodFromEeprom       text60       01F382
__end_of_readValveDataFromEeprom                          text16       0147F0
__end_of_removeIcon                                       text59       0021EC
__end_of_resetslave                                       mediumconst  00F246
__end_of_rtc_i2cRead                                      text129      0019A2
__end_of_rtc_i2cRestart                                   text128      0022F6
__end_of_rtc_i2cStart                                     text127      0022E2
__end_of_rtc_i2cStop                                      text126      0022CE
__end_of_rtc_i2cWait                                      text130      001DCC
__end_of_rtc_i2cWrite                                     text125      00220A
__end_of_rxANDiocInterrupt_handler                        intcode_body 018D7A
__end_of_rxByte                                           text173      002332
__end_of_rxByteLora                                       text172      00231E
__end_of_saveActiveSleepCountIntoEeprom                   text58       0007F2
__end_of_saveAuthenticationStatus                         text29       00185A
__end_of_saveDeviceIDIntoEeprom                           text28       000CDC
__end_of_saveDeviceIdStatus                               text27       0015A8
__end_of_saveDeviceProgramStatusIntoEeprom                text7        0014E8
__end_of_saveFactryPswrdIntoEeprom                        text6        000BB4
__end_of_saveFertigationValveStatusIntoEeprom             text57       01FAD0
__end_of_saveFertigationValveValuesIntoEeprom             text56       017FD2
__end_of_saveFieldMappingIntoEeprom                       text26       000C48
__end_of_saveFiltrationSequenceData                       text25       01DA4E
__end_of_saveIrrigationValveConfigurationStatusIntoEeprom text24       00170C
__end_of_saveIrrigationValveCycleStatusIntoEeprom         text85       0017B4
__end_of_saveIrrigationValveDueTimeIntoEeprom             text84       01FB98
__end_of_saveIrrigationValveNoIntoEeprom                  text55       0013C0
__end_of_saveIrrigationValveOnOffStatusIntoEeprom         text83       001760
__end_of_saveIrrigationValveValuesIntoEeprom              text23       01D172
__end_of_saveMotorLoadValuesIntoEeprom                    text22       01ED82
__end_of_saveRTCBatteryStatus                             text19       001548
__end_of_saveRemainingFertigationOnPeriod                 text45       000942
__end_of_scanValveScheduleAndGetSleepCount                text1        015F70
__end_of_secret                                           mediumconst  00EDEF
__end_of_selectChannel                                    text39       01FA08
__end_of_sendCmdToLora                                    text72       01C5A6
__end_of_sensor                                           mediumconst  00F2D1
__end_of_set                                              mediumconst  00F336
__end_of_setFactoryPincode                                text5        000748
__end_of_setGsmToLocalTime                                text4        019F66
__end_of_setct                                            mediumconst  00F2FE
__end_of_slave                                            mediumconst  00F2F8
__end_of_sprintf                                          text92       001950
__end_of_srand                                            text10       0020D2
__end_of_strcpyCustom                                     text31       01F0D4
__end_of_strlen                                           text97       001808
__end_of_strncmp                                          text91       01E556
__end_of_strncpy                                          text21       000F06
__end_of_time                                             mediumconst  00F319
__end_of_timerInterrupt_handler                           intcodelo    000696
__end_of_transmitNumberToGSM                              text89       0018FE
__end_of_transmitNumberToLora                             text74       001B24
__end_of_transmitStringToGSM                              text88       001076
__end_of_transmitStringToLora                             text73       0018AC
__end_of_txByte                                           text90       00225A
__end_of_txByteLora                                       text75       002240
__end_of_vfpfcnvrt                                        text94       01D61A
__end_of_vfprintf                                         text93       001290
__end_ofi1_clearDecodedString                             text136      001F30
__end_ofi1_strncmp                                        text135      01E6C8
__end_ofi2_LCDpulseEnableNeg                              text162      00216C
__end_ofi2_LCDwritePCF8574                                text163      00238C
__end_ofi2___aodiv                                        text148      01E3E4
__end_ofi2___aomod                                        text147      01EAF8
__end_ofi2_abs                                            text146      001C72
__end_ofi2_clearDecodedString                             text171      001FC6
__end_ofi2_clearFieldByte                                 text170      001F94
__end_ofi2_clearGsmResponse                               text169      001E02
__end_ofi2_ctoa                                           text149      01F616
__end_ofi2_displayIcon                                    text154      001F62
__end_ofi2_dtoa                                           text142      01CEBC
__end_ofi2_fetchDigits                                    text153      00122A
__end_ofi2_fputc                                          text150      01F878
__end_ofi2_fputs                                          text145      001BB0
__end_ofi2_lcdCommandWrite                                text159      0023F6
__end_ofi2_lcdCreateChar                                  text157      001A94
__end_ofi2_lcdDataWrite                                   text158      0023E8
__end_ofi2_lcdSend                                        text160      002122
__end_ofi2_lcdSetCursor                                   text156      001660
__end_ofi2_lcdWrite4Bits                                  text161      00230A
__end_ofi2_lcdWriteChar                                   text155      002400
__end_ofi2_lcd_i2cStart                                   text168      0023B0
__end_ofi2_lcd_i2cStop                                    text167      00239E
__end_ofi2_lcd_i2cWait                                    text166      002080
__end_ofi2_lcd_i2cWrite                                   text165      00228E
__end_ofi2_lcd_i2cWriteByteSingleReg                      text164      000F8A
__end_ofi2_pad                                            text143      01FD24
__end_ofi2_putch                                          text151      01FFFE
__end_ofi2_removeIcon                                     text152      0022A6
__end_ofi2_sprintf                                        text139      0019F4
__end_ofi2_strlen                                         text144      001A44
__end_ofi2_strncmp                                        text138      01E994
__end_ofi2_vfpfcnvrt                                      text141      01D858
__end_ofi2_vfprintf                                       text140      00135C
__entrymodeset                                            bssBANK1     00012B
__functionset                                             bssBANK1     00012C
__initialization                                          cinit        01FD24
__lcdBacklightval                                         bssBANK1     000128
__mediumconst                                             mediumconst  00E3E6
__numlines                                                bssBANK0     0000A9
__pbssBANK0                                               bssBANK0     000097
__pbssBANK1                                               bssBANK1     000100
__pbssBANK2                                               bssBANK2     000295
__pbssBANK3                                               bssBANK3     000300
__pbssBANK5                                               bssBANK5     000500
__pbssBIGRAM                                              bssBIGRAM    000560
__pcinit                                                  cinit        01FD24
__pcstackBANK0                                            cstackBANK0  000060
__pcstackBANK1                                            cstackBANK1  000188
__pcstackBANK2                                            cstackBANK2  0002F8
__pcstackBANK3                                            cstackBANK3  0003C8
__pcstackCOMRAM                                           cstackCOMRAM 000001
__pdataBANK1                                              dataBANK1    0001F7
__pdataBANK2                                              dataBANK2    000200
__pdataBANK4                                              dataBANK4    000400
__pidataBANK1                                             idataBANK1   002400
__pidataBANK2                                             idataBANK2   000A8A
__pidataBANK4                                             idataBANK4   01F878
__pintcode                                                intcode      000008
__pintcode_body                                           intcode_body 0186B2
__pintcodelo                                              intcodelo    000018
__pmediumconst                                            mediumconst  00E3E6
__ptext0                                                  text0        01D172
__ptext1                                                  text1        01545C
__ptext10                                                 text10       0020AA
__ptext100                                                text100      01E6C8
__ptext101                                                text101      01E0D2
__ptext102                                                text102      01F0D4
__ptext103                                                text103      01F6E2
__ptext104                                                text104      01FFFA
__ptext105                                                text105      01F464
__ptext106                                                text106      01FB98
__ptext107                                                text107      00218E
__ptext108                                                text108      001BF2
__ptext109                                                text109      001424
__ptext11                                                 text11       001076
__ptext110                                                text110      002332
__ptext111                                                text111      001E9A
__ptext112                                                text112      001CB0
__ptext113                                                text113      002344
__ptext114                                                text114      002026
__ptext115                                                text115      00225A
__ptext116                                                text116      002080
__ptext117                                                text117      0022A6
__ptext118                                                text118      000D6E
__ptext119                                                text119      00220A
__ptext12                                                 text12       001154
__ptext120                                                text120      001FF6
__ptext121                                                text121      002356
__ptext122                                                text122      002368
__ptext123                                                text123      01A4FA
__ptext124                                                text124      01FDDE
__ptext125                                                text125      0021EC
__ptext126                                                text126      0022BA
__ptext127                                                text127      0022CE
__ptext128                                                text128      0022E2
__ptext129                                                text129      001950
__ptext13                                                 text13       01B8E0
__ptext130                                                text130      001D96
__ptext131                                                text131      0021AE
__ptext132                                                text132      001290
__ptext133                                                text133      001ECC
__ptext135                                                text135      01E556
__ptext136                                                text136      001EFE
__ptext138                                                text138      01E82E
__ptext139                                                text139      0019A2
__ptext14                                                 text14       001D28
__ptext140                                                text140      0012F6
__ptext141                                                text141      01D61A
__ptext142                                                text142      01CBD8
__ptext143                                                text143      01FC5E
__ptext144                                                text144      0019F4
__ptext145                                                text145      001B6C
__ptext146                                                text146      001C32
__ptext147                                                text147      01E994
__ptext148                                                text148      01E25C
__ptext149                                                text149      01F53E
__ptext15                                                 text15       017FD2
__ptext150                                                text150      01F7AE
__ptext151                                                text151      01FFFC
__ptext152                                                text152      00228E
__ptext153                                                text153      0011C0
__ptext154                                                text154      001F30
__ptext155                                                text155      0023F6
__ptext156                                                text156      001604
__ptext157                                                text157      001A44
__ptext158                                                text158      0023DA
__ptext159                                                text159      0023E8
__ptext16                                                 text16       013AAC
__ptext160                                                text160      0020FA
__ptext161                                                text161      0022F6
__ptext162                                                text162      002148
__ptext163                                                text163      00237A
__ptext164                                                text164      000F06
__ptext165                                                text165      002274
__ptext166                                                text166      002054
__ptext167                                                text167      00238C
__ptext168                                                text168      00239E
__ptext169                                                text169      001DCC
__ptext17                                                 text17       01DD9C
__ptext170                                                text170      001F62
__ptext171                                                text171      001F94
__ptext172                                                text172      00230A
__ptext173                                                text173      00231E
__ptext18                                                 text18       000942
__ptext19                                                 text19       0014E8
__ptext2                                                  text2        01EEBA
__ptext20                                                 text20       010000
__ptext21                                                 text21       000E80
__ptext22                                                 text22       01EC48
__ptext23                                                 text23       01CEBC
__ptext24                                                 text24       0016B8
__ptext25                                                 text25       01D858
__ptext26                                                 text26       000BB4
__ptext27                                                 text27       001548
__ptext28                                                 text28       000C48
__ptext29                                                 text29       001808
__ptext3                                                  text3        0147F0
__ptext30                                                 text30       01AF4C
__ptext31                                                 text31       01EFD6
__ptext32                                                 text32       0009E6
__ptext33                                                 text33       001C72
__ptext34                                                 text34       001E36
__ptext35                                                 text35       001D60
__ptext36                                                 text36       01AA26
__ptext37                                                 text37       019F66
__ptext38                                                 text38       01F1BE
__ptext39                                                 text39       01F940
__ptext4                                                  text4        0199AC
__ptext40                                                 text40       001A94
__ptext41                                                 text41       01DF38
__ptext42                                                 text42       01DA4E
__ptext43                                                 text43       018D7A
__ptext44                                                 text44       015F70
__ptext45                                                 text45       00089C
__ptext46                                                 text46       000CDC
__ptext47                                                 text47       016964
__ptext48                                                 text48       01C5A6
__ptext49                                                 text49       01EAF8
__ptext5                                                  text5        00069A
__ptext50                                                 text50       0023B0
__ptext51                                                 text51       0023BE
__ptext52                                                 text52       00216C
__ptext53                                                 text53       01ED82
__ptext54                                                 text54       012B96
__ptext55                                                 text55       00135C
__ptext56                                                 text56       0178D4
__ptext57                                                 text57       01FA08
__ptext58                                                 text58       000748
__ptext59                                                 text59       0021CE
__ptext6                                                  text6        000B20
__ptext60                                                 text60       01F2A0
__ptext61                                                 text61       01F382
__ptext62                                                 text62       0171AC
__ptext63                                                 text63       0013C0
__ptext64                                                 text64       002122
__ptext65                                                 text65       000DF8
__ptext66                                                 text66       001CEE
__ptext67                                                 text67       0023CC
__ptext68                                                 text68       001660
__ptext69                                                 text69       0007F2
__ptext7                                                  text7        001488
__ptext70                                                 text70       01DBFA
__ptext71                                                 text71       01B42E
__ptext72                                                 text72       01C1A2
__ptext73                                                 text73       00185A
__ptext74                                                 text74       001ADC
__ptext75                                                 text75       002226
__ptext76                                                 text76       01BD5A
__ptext77                                                 text77       001FC6
__ptext78                                                 text78       0010E6
__ptext79                                                 text79       0020D2
__ptext8                                                  text8        0015A8
__ptext80                                                 text80       001E68
__ptext81                                                 text81       000F8A
__ptext82                                                 text82       01FE98
__ptext83                                                 text83       00170C
__ptext84                                                 text84       01FAD0
__ptext85                                                 text85       001760
__ptext86                                                 text86       001E02
__ptext87                                                 text87       0193E6
__ptext88                                                 text88       001000
__ptext89                                                 text89       0018AC
__ptext9                                                  text9        01FF4A
__ptext90                                                 text90       002240
__ptext91                                                 text91       01E3E4
__ptext92                                                 text92       0018FE
__ptext93                                                 text93       00122A
__ptext94                                                 text94       01D3D0
__ptext95                                                 text95       01C8DC
__ptext96                                                 text96       01F616
__ptext97                                                 text97       0017B4
__ptext98                                                 text98       001B24
__ptext99                                                 text99       001BB0
__ramtop                                                  ramtop       000E00
__smallconst                                              smallconst   000000
_abs                                                      text99       001BB0
_ack                                                      mediumconst  00F31E
_actionsOnDueValve                                        text62       0171AC
_actionsOnSleepCountFinish                                text54       012B96
_actionsOnSystemReset                                     text3        0147F0
_activateValve                                            text71       01B42E
_active                                                   mediumconst  00F2D8
_admin                                                    mediumconst  00F339
_alive                                                    mediumconst  00F2E6
_alive1                                                   mediumconst  00F304
_atcmdStart                                               bssBANK1     000130
_battery                                                  dataBANK2    00024D
_bcd2Decimal                                              text131      0021AE
_bell                                                     dataBANK2    000285
_blank                                                    bssBANK2     0002F0
_calibrateMotorCurrent                                    text36       01AA26
_charmap                                                  dataBANK2    000200
_check                                                    dataBANK2    000238
_checkFertFlow                                            bssBANK1     000135
_checkLoraConnection                                      bssBANK1     00013B
_checkMoistureSensor                                      bssBANK1     00014E
_checkResetType                                           text53       01ED82
_checkWaterFlow                                           bssBANK1     000136
_clearDecodedString                                       text80       001E68
_clearFieldByte                                           text133      001ECC
_clearGsmResponse                                         text35       001D60
_clearStringToDecode                                      text34       001E36
_clearTempBytesString                                     text111      001E9A
_clock                                                    dataBANK2    00028D
_cmd10_10                                                 mediumconst  00F225
_cmd11_11                                                 mediumconst  00F202
_cmd12_13                                                 mediumconst  00F1B3
_cmd13_8                                                  mediumconst  00F264
_cmd14_11                                                 mediumconst  00F1F6
_cmd15_6                                                  mediumconst  00F2BC
_cmd16_9                                                  mediumconst  00F246
_cmd17_11                                                 mediumconst  00F1EA
_cmd18_12                                                 mediumconst  00F1DD
_cmd18_7                                                  mediumconst  00F286
_cmd19_10                                                 mediumconst  00F21A
_cmd1_6                                                   mediumconst  00F2C3
_cmd2_9                                                   mediumconst  00F25A
_cmd3_9                                                   mediumconst  00F250
_cmd4_7                                                   mediumconst  00F28E
_cmd5_8                                                   mediumconst  00F26D
_cmd6_10                                                  mediumconst  00F230
_cmd7_17                                                  mediumconst  00F191
_cmd8_13                                                  mediumconst  00F1C1
_cmd9_11                                                  mediumconst  00F20E
_cmdRceived                                               bssBANK1     00013C
_cmqttError                                               mediumconst  00F1CF
_cmtiCmd                                                  bssBANK1     00013F
_configureController                                      text48       01C5A6
_configureMQTT                                            text47       016964
_controllerCommandExecuted                                bssBANK0     0000AF
_correctDate                                              bssBANK1     000143
_countryCode                                              mediumconst  00EDFB
_ct                                                       mediumconst  00F32A
_ctoa                                                     text102      01F0D4
_currentDD                                                bssBANK0     0000BA
_currentDateCalled                                        bssBANK1     00014C
_currentFieldNo                                           bssBANK1     000150
_currentHour                                              bssBANK0     0000B9
_currentMM                                                bssBANK0     0000BB
_currentMinutes                                           bssBANK0     0000B8
_currentSeconds                                           bssBANK1     000153
_currentYY                                                bssBANK0     0000BC
_dactive                                                  mediumconst  00F29E
_days                                                     text2        01EEBA
_dbuf                                                     bssBANK2     0002C1
_deActivateValve                                          text70       01DBFA
_decimal2BCD                                              text33       001C72
_decodedString                                            bssBANK3     000300
_deepSleep                                                text37       019F66
_deviceIDFalg                                             bssBANK1     00012D
_deviceId                                                 dataBANK2    000240
_deviceIdSet                                              bssBANK0     0000B2
_disable                                                  mediumconst  00F2A6
_displayIcon                                              text66       001CEE
_doDryRunAction                                           text44       015F70
_doLoraSlaveInActiveAction                                text43       018D7A
_doLowPhaseAction                                         text42       01DA4E
_doPhaseFailureAction                                     text41       01DF38
_dry                                                      dataBANK2    00025D
_dryRunCheckCount                                         bssBANK0     0000B3
_dryRunDetected                                           bssBANK1     000149
_dtoa                                                     text95       01C8DC
_dtoa$7291                                                cstackBANK1  0001B5
_dueDD                                                    bssBANK0     0000A7
_dueDate                                                  bssBANK2     0002E1
_dueMM                                                    bssBANK0     0000B6
_dueValveChecked                                          bssBANK1     000144
_dueYY                                                    bssBANK0     0000B7
_eepromAddress                                            mediumconst  00EC9B
_eepromRead                                               text64       002122
_eepromWrite                                              text86       001E02
_enable                                                   mediumconst  00F2DF
_enter                                                    dataBANK1    0001FC
_error                                                    mediumconst  00F2EC
_extract                                                  mediumconst  00F296
_extractReceivedSms                                       text20       010000
_factryPswrd                                              bssBANK1     00017D
_fdata                                                    mediumconst  00F2FE
_feed                                                     mediumconst  00F30F
_feedTimeInRTC                                            text32       0009E6
_fert                                                     dataBANK2    000275
_fertigationDry                                           bssBANK1     000138
_fetchDigits                                              text78       0010E6
_fetchTimefromRTC                                         text124      01FDDE
_fieldByte                                                bssBANK0     0000C7
_fieldCount                                               dataBANK1    0001FF
_fieldMap                                                 bssBANK5     000500
_fieldValve                                               bssBIGRAM    000560
_filt                                                     dataBANK2    000265
_filtrationCycleSequence                                  bssBANK0     0000BD
_filtrationDelay1                                         bssBANK1     000152
_filtrationDelay2                                         bssBANK0     0000B5
_filtrationDelay3                                         bssBANK1     000151
_filtrationEnabled                                        bssBANK0     0000AD
_filtrationOnTime                                         bssBANK0     0000B4
_filtrationSeperationTime                                 bssBANK1     000126
_flags                                                    bssBANK0     00009B
_fputc                                                    text103      01F6E2
_fputs                                                    text98       001B24
_fullLoadCutOff                                           bssBANK0     0000CA
_getADCResult                                             text40       001A94
_getDateFromGSM                                           text13       01B8E0
_getDueDate                                               text123      01A4FA
_getct                                                    mediumconst  00F326
_getfreq                                                  mediumconst  00F30A
_gsmResponse                                              dataBANK4    000400
_gsmSetToLocalTime                                        bssBANK1     00013D
_higher8bits                                              bssBANK0     0000A1
_hold                                                     mediumconst  00F319
_hundredsDigit                                            bssBANK1     000156
_idle                                                     mediumconst  00EDF6
_inSleepMode                                              bssBANK1     00014A
_inject                                                   mediumconst  00EDEF
_injector1Cycle                                           bssBANK1     000162
_injector1CycleCnt                                        bssBANK1     00015E
_injector1OffPeriod                                       bssBANK1     000112
_injector1OffPeriodCnt                                    bssBANK1     00010A
_injector1OnPeriod                                        bssBANK1     000122
_injector1OnPeriodCnt                                     bssBANK1     00011A
_injector2Cycle                                           bssBANK1     000161
_injector2CycleCnt                                        bssBANK1     00015D
_injector2OffPeriod                                       bssBANK1     000110
_injector2OffPeriodCnt                                    bssBANK1     000108
_injector2OnPeriod                                        bssBANK1     000120
_injector2OnPeriodCnt                                     bssBANK1     000118
_injector3Cycle                                           bssBANK1     000160
_injector3CycleCnt                                        bssBANK1     00015C
_injector3OffPeriod                                       bssBANK1     00010E
_injector3OffPeriodCnt                                    bssBANK1     000106
_injector3OnPeriod                                        bssBANK1     00011E
_injector3OnPeriodCnt                                     bssBANK1     000116
_injector4Cycle                                           bssBANK1     00015F
_injector4CycleCnt                                        bssBANK1     00015B
_injector4OffPeriod                                       bssBANK1     00010C
_injector4OffPeriodCnt                                    bssBANK1     000104
_injector4OnPeriod                                        bssBANK1     00011C
_injector4OnPeriodCnt                                     bssBANK1     000114
_irri                                                     dataBANK2    00027D
_isERROR                                                  bssBANK0     0000AA
_isErrorActionTaken                                       bssBANK1     000134
_isFieldMoistureSensorWetLora                             text69       0007F2
_isLoraResponseAck                                        text76       01BD5A
_isLoraSlaveAlive                                         bssBANK1     000137
_isMotorInNoLoad                                          text38       01F1BE
_isNotification                                           bssBANK1     000133
_isNumber                                                 text77       001FC6
_isOK                                                     bssBANK0     0000AB
_isPulseOn                                                bssBANK0     0000AC
_isRTCBatteryDrained                                      text18       000942
_isValveConfigured                                        bssBANK1     000132
_iterator                                                 bssBANK0     0000C3
_iterator_field                                           bssBANK0     0000C2
_lcdClear                                                 text52       00216C
_lcdClearLine                                             text107      00218E
_lcdCommandWrite                                          text110      002332
_lcdCreateChar                                            text68       001660
_lcdDataWrite                                             text113      002344
_lcdDisplayOff                                            text51       0023BE
_lcdDisplayOn                                             text50       0023B0
_lcdInit                                                  text49       01EAF8
_lcdSend                                                  text114      002026
_lcdSetCursor                                             text109      001424
_lcdWrite4Bits                                            text115      00225A
_lcdWriteChar                                             text67       0023CC
_lcdWriteString                                           text108      001BF2
_lcdWriteStringAtCenter                                   text105      01F464
_lcdWriteStringIndex                                      text112      001CB0
_lcd_i2cStart                                             text122      002368
_lcd_i2cStop                                              text121      002356
_lcd_i2cWait                                              text120      001FF6
_lcd_i2cWrite                                             text119      00220A
_lcd_i2cWriteByteSingleReg                                text118      000D6E
_loadDataFromEeprom                                       text15       017FD2
_loraAliveCount                                           bssBANK1     00015A
_loraAliveCountCheck                                      bssBANK1     000159
_loraAttempt                                              bssBANK0     0000C6
_lowBattery                                               bssBANK1     00012F
_lowPhaseCurrentDetected                                  bssBANK1     000148
_lowRTCBatteryDetected                                    bssBANK0     0000AE
_lowbattery                                               mediumconst  00F1A3
_lower8bits                                               bssBANK0     0000A3
_main                                                     text0        01D172
_map                                                      mediumconst  00F32E
_master                                                   mediumconst  00F2D1
_moistureLevel                                            bssBANK0     00009F
_moistureSensorFailed                                     bssBANK1     00014D
_mqttConnect                                              mediumconst  00EDC1
_mqtt_ca                                                  mediumconst  00E3E7
_msgIndex                                                 bssBANK0     0000C4
_msgStart                                                 bssBANK1     000131
_newLine                                                  dataBANK1    0001FB
_newSMSRcvd                                               bssBANK0     0000B0
_noLoadCutOff                                             bssBANK0     00009D
_nout                                                     bssBANK1     000100
_off                                                      mediumconst  00F322
_ok                                                       mediumconst  00EDFF
_on                                                       mediumconst  00F336
_onHold                                                   bssBANK1     000145
_pad                                                      text96       01F616
_phase                                                    dataBANK2    000255
_phaseFailure                                             text14       001D28
_phaseFailureActionTaken                                  bssBANK1     000140
_phaseFailureDetected                                     bssBANK1     000142
_powerOffMotor                                            text46       000CDC
_powerOnMotor                                             text65       000DF8
_prec                                                     bssBANK0     000099
_publishNotification                                      text87       0193E6
_publishResponse                                          text30       01AF4C
_pulses                                                   bssBANK1     00014F
_putch                                                    text104      01FFFA
_pwd                                                      bssBANK2     0002BA
_rand                                                     text11       001076
_randomPasswordGeneration                                 text9        01FF4A
_readActiveSleepCountFromEeprom                           text61       01F382
_readDeviceProgramStatusFromEeprom                        text8        0015A8
_readFieldIrrigationValveNoFromEeprom                     text63       0013C0
_readMotorLoadValuesFromEeprom                            text17       01DD9C
_readRemainingFertigationOnPeriodFromEeprom               text60       01F2A0
_readValveDataFromEeprom                                  text16       013AAC
_remainingFertigationOnPeriod                             bssBANK1     000124
_removeIcon                                               text59       0021CE
_resetCount                                               bssBANK0     0000C1
_resetSlave                                               bssBANK1     00012E
_resetslave                                               mediumconst  00F23B
_rtcBatteryLevelChecked                                   bssBANK1     000141
_rtc_i2cRead                                              text129      001950
_rtc_i2cRestart                                           text128      0022E2
_rtc_i2cStart                                             text127      0022CE
_rtc_i2cStop                                              text126      0022BA
_rtc_i2cWait                                              text130      001D96
_rtc_i2cWrite                                             text125      0021EC
_rxANDiocInterrupt_handler                                intcode      000008
_rxByte                                                   text173      00231E
_rxByteLora                                               text172      00230A
_rxCharacter                                              bssBANK0     0000C5
_saveActiveSleepCountIntoEeprom                           text58       000748
_saveAuthenticationStatus                                 text29       001808
_saveDeviceIDIntoEeprom                                   text28       000C48
_saveDeviceIdStatus                                       text27       001548
_saveDeviceProgramStatusIntoEeprom                        text7        001488
_saveFactryPswrdIntoEeprom                                text6        000B20
_saveFertigationValveStatusIntoEeprom                     text57       01FA08
_saveFertigationValveValuesIntoEeprom                     text56       0178D4
_saveFieldMappingIntoEeprom                               text26       000BB4
_saveFiltrationSequenceData                               text25       01D858
_saveIrrigationValveConfigurationStatusIntoEeprom         text24       0016B8
_saveIrrigationValveCycleStatusIntoEeprom                 text85       001760
_saveIrrigationValveDueTimeIntoEeprom                     text84       01FAD0
_saveIrrigationValveNoIntoEeprom                          text55       00135C
_saveIrrigationValveOnOffStatusIntoEeprom                 text83       00170C
_saveIrrigationValveValuesIntoEeprom                      text23       01CEBC
_saveMotorLoadValuesIntoEeprom                            text22       01EC48
_saveRTCBatteryStatus                                     text19       0014E8
_saveRemainingFertigationOnPeriod                         text45       00089C
_scanValveScheduleAndGetSleepCount                        text1        01545C
_secret                                                   mediumconst  00EDE3
_seed                                                     bssBANK1     000184
_selectChannel                                            text39       01F940
_sendCmdToLora                                            text72       01C1A2
_sensor                                                   mediumconst  00F2CA
_set                                                      mediumconst  00F332
_setFactoryPincode                                        text5        00069A
_setGsmToLocalTime                                        text4        0199AC
_setct                                                    mediumconst  00F2F8
_slave                                                    mediumconst  00F2F2
_sleepCount                                               bssBANK0     0000A5
_sleepCountChangedDueToInterrupt                          bssBANK1     00014B
_sms                                                      dataBANK2    00026D
_space                                                    dataBANK1    0001FE
_sprintf                                                  text92       0018FE
_srand                                                    text10       0020AA
_startFieldNo                                             bssBANK1     000157
_strcpyCustom                                             text31       01EFD6
_strlen                                                   text97       0017B4
_strncmp                                                  text91       01E3E4
_strncpy                                                  text21       000E80
_systemAuthenticated                                      bssBANK0     0000B1
_temp                                                     bssBANK1     000102
_temporaryBytesArray                                      bssBANK1     000163
_tensDigit                                                bssBANK0     0000C0
_terminateSms                                             dataBANK1    0001FD
_time                                                     mediumconst  00F314
_timer3Count                                              bssBANK1     000158
_timerInterrupt_handler                                   intcodelo    000018
_transmitNumberToGSM                                      text89       0018AC
_transmitNumberToLora                                     text74       001ADC
_transmitStringToGSM                                      text88       001000
_transmitStringToLora                                     text73       00185A
_txByte                                                   text90       002240
_txByteLora                                               text75       002226
_unitsDigit                                               bssBANK0     0000BF
_userMobileNo                                             bssBANK2     0002AF
_valveDue                                                 bssBANK1     000147
_valveExecuted                                            bssBANK1     000146
_vfpfcnvrt                                                text94       01D3D0
_vfprintf                                                 text93       00122A
_wetSensor                                                bssBANK1     000139
_width                                                    bssBANK0     000097
abs@a                                                     cstackBANK1  00019A
actionsOnDueValve@field_No                                cstackBANK3  0003CF
actionsOnDueValve@last_Field_No                           cstackBANK3  0003CE
actionsOnSleepCountFinish@field_No                        cstackBANK2  0002FF
actionsOnSystemReset@resetType                            cstackBANK3  0003F2
activateValve@FieldNo                                     cstackBANK3  0003CB
activateValve@action                                      cstackBANK3  0003CA
bcd2Decimal@bcd                                           cstackBANK1  00018A
bcd2Decimal@temp                                          cstackBANK1  000189
btemp                                                     temp         00005F
calibrateMotorCurrent@FieldNo                             cstackBANK1  000195
calibrateMotorCurrent@ctOutput                            cstackBANK1  00019A
calibrateMotorCurrent@itr                                 cstackBANK1  000199
calibrateMotorCurrent@limit                               cstackBANK1  000198
calibrateMotorCurrent@loadType                            cstackBANK1  00019C
checkResetType@resetType                                  cstackBANK1  000188
ctoa@c                                                    cstackBANK1  000193
ctoa@fp                                                   cstackBANK1  000191
ctoa@l                                                    cstackBANK1  000195
ctoa@w                                                    cstackBANK1  000197
days@F15290                                               dataBANK2    000221
days@days                                                 cstackBANK1  0001A3
days@itr                                                  cstackBANK1  0001A5
days@mm                                                   cstackBANK1  0001A2
days@month                                                cstackBANK1  000196
days@yy                                                   cstackBANK1  00018D
deActivateValve@FieldNo                                   cstackBANK3  0003C9
deActivateValve@action                                    cstackBANK3  0003C8
decimal2BCD@decimal                                       cstackBANK1  0001A0
decimal2BCD@temp                                          cstackBANK1  0001A1
deepSleep@i                                               cstackBANK3  0003D3
displayIcon@icon                                          cstackBANK1  00019F
doDryRunAction@field_No                                   cstackBANK3  0003D0
doDryRunAction@sleepCountVar                              cstackBANK3  0003CE
doLoraSlaveInActiveAction@field_No                        cstackBANK2  0002FE
doLoraSlaveInActiveAction@sleepCountVar                   cstackBANK2  0002FC
doLowPhaseAction@field_No                                 cstackBANK2  0002FF
doPhaseFailureAction@field_No                             cstackBANK2  0002FF
dtoa@d                                                    cstackBANK1  0001A5
dtoa@fp                                                   cstackBANK1  0001A3
dtoa@i                                                    cstackBANK1  0001C5
dtoa@n                                                    cstackBANK1  0001BD
dtoa@p                                                    cstackBANK1  0001B7
dtoa@s                                                    cstackBANK1  0001BB
dtoa@w                                                    cstackBANK1  0001B9
eepromRead@address                                        cstackBANK1  000188
eepromWrite@address                                       cstackBANK1  000188
eepromWrite@data                                          cstackBANK1  00018A
end_of_initialization                                     cinit        01FDD4
extractReceivedSms@count                                  cstackBANK3  0003ED
extractReceivedSms@digit                                  cstackBANK3  0003EE
extractReceivedSms@index                                  cstackBANK3  0003EC
extractReceivedSms@onHour                                 cstackBANK3  0003EA
extractReceivedSms@onMinute                               cstackBANK3  0003EB
fetchDigits@index                                         cstackBANK1  000189
fputc@c                                                   cstackBANK1  000188
fputc@fp                                                  cstackBANK1  00018A
fputs@c                                                   cstackBANK1  000195
fputs@fp                                                  cstackBANK1  000193
fputs@i                                                   cstackBANK1  000196
fputs@s                                                   cstackBANK1  000191
getADCResult@adcResult                                    cstackBANK1  00018C
getDateFromGSM@index                                      cstackBANK2  0002FF
getDueDate@F15278                                         dataBANK2    000214
getDueDate@days                                           cstackBANK1  0001A8
getDueDate@firstMonth                                     cstackBANK1  00019E
getDueDate@lastMonth                                      cstackBANK1  00019F
getDueDate@leapYearDays                                   cstackBANK1  0001A2
getDueDate@month                                          cstackBANK1  000191
getDueDate@offset                                         cstackBANK1  0001A6
getDueDate@remDays                                        cstackBANK1  0001A0
getDueDate@yearDays                                       cstackBANK1  0001A4
i1_clearDecodedString                                     text136      001EFE
i1_strncmp                                                text135      01E556
i1strncmp@_l                                              cstackBANK0  00007B
i1strncmp@_r                                              cstackBANK0  00007D
i1strncmp@l                                               cstackBANK0  000083
i1strncmp@n                                               cstackBANK0  00007F
i1strncmp@r                                               cstackBANK0  000085
i2LCDpulseEnableNeg@_data                                 cstackCOMRAM 000006
i2LCDwritePCF8574@value                                   cstackCOMRAM 000005
i2_LCDpulseEnableNeg                                      text162      002148
i2_LCDwritePCF8574                                        text163      00237A
i2___aodiv                                                text148      01E25C
i2___aodiv@counter                                        cstackCOMRAM 000011
i2___aodiv@dividend                                       cstackCOMRAM 000001
i2___aodiv@divisor                                        cstackCOMRAM 000009
i2___aodiv@quotient                                       cstackCOMRAM 000013
i2___aodiv@sign                                           cstackCOMRAM 000012
i2___aomod                                                text147      01E994
i2___aomod@counter                                        cstackCOMRAM 000011
i2___aomod@dividend                                       cstackCOMRAM 000001
i2___aomod@divisor                                        cstackCOMRAM 000009
i2___aomod@sign                                           cstackCOMRAM 000012
i2_abs                                                    text146      001C32
i2_clearDecodedString                                     text171      001F94
i2_clearFieldByte                                         text170      001F62
i2_clearGsmResponse                                       text169      001DCC
i2_ctoa                                                   text149      01F53E
i2_displayIcon                                            text154      001F30
i2_dtoa                                                   text142      01CBD8
i2_dtoa$7291                                              cstackCOMRAM 00002E
i2_fetchDigits                                            text153      0011C0
i2_fputc                                                  text150      01F7AE
i2_fputs                                                  text145      001B6C
i2_lcdCommandWrite                                        text159      0023E8
i2_lcdCreateChar                                          text157      001A44
i2_lcdDataWrite                                           text158      0023DA
i2_lcdSend                                                text160      0020FA
i2_lcdSetCursor                                           text156      001604
i2_lcdWrite4Bits                                          text161      0022F6
i2_lcdWriteChar                                           text155      0023F6
i2_lcd_i2cStart                                           text168      00239E
i2_lcd_i2cStop                                            text167      00238C
i2_lcd_i2cWait                                            text166      002054
i2_lcd_i2cWrite                                           text165      002274
i2_lcd_i2cWriteByteSingleReg                              text164      000F06
i2_pad                                                    text143      01FC5E
i2_putch                                                  text151      01FFFC
i2_removeIcon                                             text152      00228E
i2_sprintf                                                text139      0019A2
i2_strlen                                                 text144      0019F4
i2_strncmp                                                text138      01E82E
i2_vfpfcnvrt                                              text141      01D61A
i2_vfprintf                                               text140      0012F6
i2abs@a                                                   cstackCOMRAM 000013
i2ctoa@c                                                  cstackCOMRAM 00000C
i2ctoa@fp                                                 cstackCOMRAM 00000A
i2ctoa@l                                                  cstackCOMRAM 00000E
i2ctoa@w                                                  cstackCOMRAM 000010
i2displayIcon@icon                                        cstackCOMRAM 000018
i2dtoa@d                                                  cstackCOMRAM 00001E
i2dtoa@fp                                                 cstackCOMRAM 00001C
i2dtoa@i                                                  cstackCOMRAM 00003E
i2dtoa@n                                                  cstackCOMRAM 000036
i2dtoa@p                                                  cstackCOMRAM 000030
i2dtoa@s                                                  cstackCOMRAM 000034
i2dtoa@w                                                  cstackCOMRAM 000032
i2fetchDigits@index                                       cstackCOMRAM 000002
i2fputc@c                                                 cstackCOMRAM 000001
i2fputc@fp                                                cstackCOMRAM 000003
i2fputs@c                                                 cstackCOMRAM 00000E
i2fputs@fp                                                cstackCOMRAM 00000C
i2fputs@i                                                 cstackCOMRAM 00000F
i2fputs@s                                                 cstackCOMRAM 00000A
i2lcdCommandWrite@value                                   cstackCOMRAM 00000C
i2lcdCreateChar@charmap_                                  cstackCOMRAM 00000D
i2lcdCreateChar@i                                         cstackCOMRAM 000010
i2lcdCreateChar@location                                  cstackCOMRAM 00000F
i2lcdDataWrite@value                                      cstackCOMRAM 00000C
i2lcdSend@RsMode                                          cstackCOMRAM 000008
i2lcdSend@highnib                                         cstackCOMRAM 000009
i2lcdSend@lownib                                          cstackCOMRAM 00000A
i2lcdSend@value                                           cstackCOMRAM 00000B
i2lcdSetCursor@col                                        cstackCOMRAM 00000D
i2lcdSetCursor@row                                        cstackCOMRAM 000017
i2lcdSetCursor@row_offsets                                cstackCOMRAM 000013
i2lcdWrite4Bits@nibEnRsMode                               cstackCOMRAM 000007
i2lcdWriteChar@message                                    cstackCOMRAM 00000D
i2lcd_i2cWrite@data                                       cstackCOMRAM 000002
i2lcd_i2cWriteByteSingleReg@device                        cstackCOMRAM 000004
i2lcd_i2cWriteByteSingleReg@info                          cstackCOMRAM 000003
i2pad@buf                                                 cstackCOMRAM 000013
i2pad@fp                                                  cstackCOMRAM 000011
i2pad@i                                                   cstackCOMRAM 000018
i2pad@p                                                   cstackCOMRAM 000015
i2pad@w                                                   cstackCOMRAM 00001A
i2removeIcon@icon                                         cstackCOMRAM 000012
i2sprintf@ap                                              cstackBANK0  000060
i2sprintf@f                                               cstackBANK0  000062
i2sprintf@fmt                                             cstackCOMRAM 00005B
i2sprintf@s                                               cstackCOMRAM 000059
i2strlen@a                                                cstackCOMRAM 000003
i2strlen@s                                                cstackCOMRAM 000001
i2strncmp@_l                                              cstackCOMRAM 000001
i2strncmp@_r                                              cstackCOMRAM 000003
i2strncmp@l                                               cstackCOMRAM 000009
i2strncmp@n                                               cstackCOMRAM 000005
i2strncmp@r                                               cstackCOMRAM 00000B
i2vfpfcnvrt@ap                                            cstackCOMRAM 000044
i2vfpfcnvrt@c                                             cstackCOMRAM 000050
i2vfpfcnvrt@fmt                                           cstackCOMRAM 000042
i2vfpfcnvrt@fp                                            cstackCOMRAM 000040
i2vfpfcnvrt@ll                                            cstackCOMRAM 000048
i2vfprintf@ap                                             cstackCOMRAM 000055
i2vfprintf@cfmt                                           cstackCOMRAM 000057
i2vfprintf@fmt                                            cstackCOMRAM 000053
i2vfprintf@fp                                             cstackCOMRAM 000051
int$flags                                                 temp         00005F
int_func                                                  intcode_body 0186B2
intlevel0                                                 text         000000
intlevel1                                                 text         000000
intlevel2                                                 text         000000
intlevel3                                                 text         000000
isFieldMoistureSensorWetLora@FieldNo                      cstackBANK1  0001A9
isFieldMoistureSensorWetLora@action                       cstackBANK1  0001A8
isLoraResponseAck@Action                                  cstackBANK1  000197
isLoraResponseAck@SlaveNo                                 cstackBANK1  000194
isLoraResponseAck@index                                   cstackBANK1  000198
isLoraResponseAck@slave_num                               cstackBANK1  000199
isMotorInNoLoad@ctOutput                                  cstackBANK1  0001A2
isMotorInNoLoad@temp                                      cstackBANK1  0001A0
isNumber@character                                        cstackBANK1  000188
isRTCBatteryDrained@batteryVoltage                        cstackBANK1  0001A4
isRTCBatteryDrained@batteryVoltageCutoff                  cstackBANK1  0001A2
isa$std                                                   (abs)        000001
isa$xinst                                                 (abs)        000000
lcdClearLine@line                                         cstackBANK1  00019F
lcdCommandWrite@value                                     cstackBANK1  000193
lcdCreateChar@charmap_                                    cstackBANK1  000194
lcdCreateChar@i                                           cstackBANK1  000197
lcdCreateChar@location                                    cstackBANK1  000196
lcdDataWrite@value                                        cstackBANK1  000193
lcdSend@RsMode                                            cstackBANK1  00018F
lcdSend@highnib                                           cstackBANK1  000190
lcdSend@lownib                                            cstackBANK1  000191
lcdSend@value                                             cstackBANK1  000192
lcdSetCursor@F15193                                       dataBANK1    0001F7
lcdSetCursor@col                                          cstackBANK1  000194
lcdSetCursor@row                                          cstackBANK1  00019E
lcdSetCursor@row_offsets                                  cstackBANK1  00019A
lcdWrite4Bits@nibEnRsMode                                 cstackBANK1  00018E
lcdWriteChar@message                                      cstackBANK1  000194
lcdWriteString@message                                    cstackBANK1  000194
lcdWriteStringAtCenter@col                                cstackBANK1  0001A4
lcdWriteStringAtCenter@message                            cstackBANK1  00019F
lcdWriteStringAtCenter@row                                cstackBANK1  0001A1
lcdWriteStringIndex@i                                     cstackBANK1  00019A
lcdWriteStringIndex@index                                 cstackBANK1  000196
lcdWriteStringIndex@message                               cstackBANK1  000194
lcd_i2cWrite@data                                         cstackBANK1  000189
lcd_i2cWriteByteSingleReg@device                          cstackBANK1  00018B
lcd_i2cWriteByteSingleReg@info                            cstackBANK1  00018A
main@last_Field_No                                        cstackBANK3  0003F5
pad@buf                                                   cstackBANK1  00019A
pad@fp                                                    cstackBANK1  000198
pad@i                                                     cstackBANK1  00019F
pad@p                                                     cstackBANK1  00019C
pad@w                                                     cstackBANK1  0001A1
publishNotification@alert                                 cstackBANK2  0002F8
publishNotification@isnum                                 cstackBANK2  0002FC
publishNotification@message                               cstackBANK2  0002FA
publishNotification@stringLength                          cstackBANK2  0002FD
publishResponse@isnum                                     cstackBANK2  0002FA
publishResponse@message                                   cstackBANK2  0002F8
publishResponse@stringLength                              cstackBANK3  0003E2
publishResponse@tempBytesArray                            cstackBANK3  0003C8
randomPasswordGeneration@F15358                           dataBANK2    00022D
randomPasswordGeneration@numbers                          cstackBANK3  0003CC
readFieldIrrigationValveNoFromEeprom@field_no             cstackBANK1  00018D
readValveDataFromEeprom@address                           cstackBANK1  00018B
readValveDataFromEeprom@fieldptr                          cstackBANK1  00018D
removeIcon@icon                                           cstackBANK1  000199
rtc_i2cRead@ACK                                           cstackBANK1  000189
rtc_i2cRead@temp                                          cstackBANK1  00018A
rtc_i2cWrite@data                                         cstackBANK1  000189
saveFertigationValveStatusIntoEeprom@address              cstackBANK1  00018B
saveFertigationValveStatusIntoEeprom@fieldptr             cstackBANK1  00018D
saveFertigationValveValuesIntoEeprom@address              cstackBANK1  00018B
saveFertigationValveValuesIntoEeprom@fieldptr             cstackBANK1  00018D
saveIrrigationValveConfigurationStatusIntoEeprom@address  cstackBANK1  00018B
saveIrrigationValveConfigurationStatusIntoEeprom@fieldptr cstackBANK1  00018D
saveIrrigationValveCycleStatusIntoEeprom@address          cstackBANK1  00018B
saveIrrigationValveCycleStatusIntoEeprom@fieldptr         cstackBANK1  00018D
saveIrrigationValveDueTimeIntoEeprom@address              cstackBANK1  00018B
saveIrrigationValveDueTimeIntoEeprom@fieldptr             cstackBANK1  00018D
saveIrrigationValveNoIntoEeprom@field_no                  cstackBANK1  00018D
saveIrrigationValveOnOffStatusIntoEeprom@address          cstackBANK1  00018B
saveIrrigationValveOnOffStatusIntoEeprom@fieldptr         cstackBANK1  00018D
saveIrrigationValveValuesIntoEeprom@address               cstackBANK1  00018B
saveIrrigationValveValuesIntoEeprom@fieldptr              cstackBANK1  00018D
scanValveScheduleAndGetSleepCount@fieldCylceChecked       cstackBANK1  0001AF
scanValveScheduleAndGetSleepCount@iLocal                  cstackBANK1  0001B0
scanValveScheduleAndGetSleepCount@leapYearDays            cstackBANK1  0001AB
scanValveScheduleAndGetSleepCount@newCount                cstackBANK1  0001B1
scanValveScheduleAndGetSleepCount@yearDays                cstackBANK1  0001AD
selectChannel@channel                                     cstackBANK1  00018A
sendCmdToLora@Action                                      cstackBANK1  0001A3
sendCmdToLora@FieldNo                                     cstackBANK1  0001A0
sendCmdToLora@IoPin                                       cstackBANK1  0001A4
sendCmdToLora@SlaveNo                                     cstackBANK1  0001A5
sprintf@ap                                                cstackBANK1  0001E8
sprintf@f                                                 cstackBANK1  0001EA
sprintf@fmt                                               cstackBANK1  0001E2
sprintf@s                                                 cstackBANK1  0001E0
srand@s                                                   cstackBANK1  000188
stackhi                                                   (abs)        000000
stacklo                                                   (abs)        000000
start                                                     init         000696
start_initialization                                      cinit        01FD24
strcpyCustom@d                                            cstackBANK1  00018E
strcpyCustom@dest                                         cstackBANK1  000188
strcpyCustom@s                                            cstackBANK1  000190
strcpyCustom@src                                          cstackBANK1  00018A
strlen@a                                                  cstackBANK1  00018A
strlen@s                                                  cstackBANK1  000188
strncmp@_l                                                cstackBANK1  000188
strncmp@_r                                                cstackBANK1  00018A
strncmp@l                                                 cstackBANK1  000190
strncmp@n                                                 cstackBANK1  00018C
strncmp@r                                                 cstackBANK1  000192
strncpy@cp                                                cstackBANK1  00018E
strncpy@d                                                 cstackBANK1  000188
strncpy@n                                                 cstackBANK1  00018C
strncpy@s                                                 cstackBANK1  00018A
transmitNumberToGSM@index                                 cstackBANK1  00018B
transmitNumberToGSM@j                                     cstackBANK1  00018F
transmitNumberToGSM@number                                cstackBANK1  000189
transmitNumberToLora@index                                cstackBANK1  00018B
transmitNumberToLora@j                                    cstackBANK1  00018D
transmitNumberToLora@number                               cstackBANK1  000189
transmitStringToGSM@string                                cstackBANK1  000189
transmitStringToLora@string                               cstackBANK1  000189
ttemp5                                                    temp         000060
ttemp6                                                    temp         000063
ttemp7                                                    temp         000067
txByte@serialData                                         cstackBANK1  000188
txByteLora@serialData                                     cstackBANK1  000188
vfpfcnvrt@ap                                              cstackBANK1  0001CB
vfpfcnvrt@c                                               cstackBANK1  0001D7
vfpfcnvrt@fmt                                             cstackBANK1  0001C9
vfpfcnvrt@fp                                              cstackBANK1  0001C7
vfpfcnvrt@ll                                              cstackBANK1  0001CF
vfprintf@ap                                               cstackBANK1  0001DC
vfprintf@cfmt                                             cstackBANK1  0001DE
vfprintf@fmt                                              cstackBANK1  0001DA
vfprintf@fp                                               cstackBANK1  0001D8
wtemp8                                                    temp         000060


MODULE INFORMATION

Module		Function		Class		Link	Load	Size
gprs.c
		_publishResponse		CODE           	1AF4C	0000	1250
		_configureMQTT 		CODE           	16964	0000	2120
		_rxByte        		CODE           	231E	0000	20
		_txByte        		CODE           	2240	0000	26
		_setGsmToLocalTime		CODE           	199AC	0000	1466
		_publishNotification		CODE           	193E6	0000	1478
		_transmitStringToGSM		CODE           	1000	0000	118
		_transmitNumberToGSM		CODE           	18AC	0000	82

gprs.c estimated size: 6560

C:\Program Files\Microchip\xc8\v2.35\pic\sources\c99\common\putch.c
		_putch         		CODE           	1FFFA	0000	2

C:\Program Files\Microchip\xc8\v2.35\pic\sources\c99\common\putch.c estimated size: 2

C:\Program Files\Microchip\xc8\v2.35\pic\sources\c99\common\rand.c
		_srand         		CODE           	20AA	0000	40
		_rand          		CODE           	1076	0000	112

C:\Program Files\Microchip\xc8\v2.35\pic\sources\c99\common\rand.c estimated size: 152

C:\Program Files\Microchip\xc8\v2.35\pic\sources\c99\common\aodiv.c
		___aodiv       		CODE           	1E0D2	0000	394

C:\Program Files\Microchip\xc8\v2.35\pic\sources\c99\common\aodiv.c estimated size: 394

C:\Program Files\Microchip\xc8\v2.35\pic\sources\c99\common\nf_sprintf.c
		_sprintf       		CODE           	18FE	0000	82

C:\Program Files\Microchip\xc8\v2.35\pic\sources\c99\common\nf_sprintf.c estimated size: 82

i2c.c
		_lcd_i2cWait   		CODE           	1FF6	0000	48
		_lcd_i2cStop   		CODE           	2356	0000	18
		_lcd_i2cWrite  		CODE           	220A	0000	28
		_lcd_i2cStart  		CODE           	2368	0000	18
		_rtc_i2cRead   		CODE           	1950	0000	82
		_rtc_i2cWait   		CODE           	1D96	0000	54
		_rtc_i2cStop   		CODE           	22BA	0000	20
		_rtc_i2cWrite  		CODE           	21EC	0000	30
		_rtc_i2cStart  		CODE           	22CE	0000	20
		_lcd_i2cWriteByteSingleReg		CODE           	0D6E	0000	138
		_rtc_i2cRestart		CODE           	22E2	0000	20

i2c.c estimated size: 476

C:\Program Files\Microchip\xc8\v2.35\pic\sources\c99\common\nf_fputc.c
		_fputc         		CODE           	1F6E2	0000	204

C:\Program Files\Microchip\xc8\v2.35\pic\sources\c99\common\nf_fputc.c estimated size: 204

C:\Program Files\Microchip\xc8\v2.35\pic\sources\c99\common\lwdiv.c
		___lwdiv       		CODE           	0F8A	0000	118

C:\Program Files\Microchip\xc8\v2.35\pic\sources\c99\common\lwdiv.c estimated size: 118

C:\Program Files\Microchip\xc8\v2.35\pic\sources\c99\common\Umul16.c
		___wmul        		CODE           	20D2	0000	40

C:\Program Files\Microchip\xc8\v2.35\pic\sources\c99\common\Umul16.c estimated size: 40

C:\Program Files\Microchip\xc8\v2.35\pic\sources\c99\common\awdiv.c
		___awdiv       		CODE           	1FB98	0000	198

C:\Program Files\Microchip\xc8\v2.35\pic\sources\c99\common\awdiv.c estimated size: 198

main_1.c
		_timerInterrupt_handler		CODE           	0018	0000	1662
		_main          		CODE           	1D172	0000	606
		_rxANDiocInterrupt_handler		CODE           	0008	0000	1742

main_1.c estimated size: 4010

lora.c
		_isLoraResponseAck		CODE           	1BD5A	0000	1096
		_rxByteLora    		CODE           	230A	0000	20
		_txByteLora    		CODE           	2226	0000	26
		_transmitStringToLora		CODE           	185A	0000	82
		_transmitNumberToLora		CODE           	1ADC	0000	72
		_sendCmdToLora 		CODE           	1C1A2	0000	1028

lora.c estimated size: 2324

C:\Program Files\Microchip\xc8\v2.35\pic\sources\c99\common\strncmp.c
		_strncmp       		CODE           	1E3E4	0000	370

C:\Program Files\Microchip\xc8\v2.35\pic\sources\c99\common\strncmp.c estimated size: 370

C:\Program Files\Microchip\xc8\v2.35\pic\sources\c99\common\strncpy.c
		_strncpy       		CODE           	0E80	0000	134

C:\Program Files\Microchip\xc8\v2.35\pic\sources\c99\common\strncpy.c estimated size: 134

eeprom.c
		_saveActiveSleepCountIntoEeprom		CODE           	0748	0000	170
		_saveDeviceIDIntoEeprom		CODE           	0C48	0000	148
		_readRemainingFertigationOnPeriodFromEeprom		CODE           	1F2A0	0000	226
		_saveIrrigationValveConfigurationStatusIntoEeprom		CODE           	16B8	0000	84
		_readValveDataFromEeprom		CODE           	13AAC	0000	3396
		_saveFertigationValveStatusIntoEeprom		CODE           	1FA08	0000	200
		_saveFieldMappingIntoEeprom		CODE           	0BB4	0000	148
		_saveFactryPswrdIntoEeprom		CODE           	0B20	0000	148
		_eepromWrite   		CODE           	1E02	0000	52
		_saveMotorLoadValuesIntoEeprom		CODE           	1EC48	0000	314
		_readFieldIrrigationValveNoFromEeprom		CODE           	13C0	0000	100
		_readActiveSleepCountFromEeprom		CODE           	1F382	0000	226
		_saveIrrigationValveValuesIntoEeprom		CODE           	1CEBC	0000	694
		_saveIrrigationValveCycleStatusIntoEeprom		CODE           	1760	0000	84
		_saveIrrigationValveNoIntoEeprom		CODE           	135C	0000	100
		_saveDeviceIdStatus		CODE           	1548	0000	96
		_saveAuthenticationStatus		CODE           	1808	0000	82
		_saveIrrigationValveOnOffStatusIntoEeprom		CODE           	170C	0000	84
		_saveIrrigationValveDueTimeIntoEeprom		CODE           	1FAD0	0000	200
		_saveFiltrationSequenceData		CODE           	1D858	0000	502
		_saveFertigationValveValuesIntoEeprom		CODE           	178D4	0000	1790
		_saveDeviceProgramStatusIntoEeprom		CODE           	1488	0000	96
		_saveRTCBatteryStatus		CODE           	14E8	0000	96
		_readMotorLoadValuesFromEeprom		CODE           	1DD9C	0000	412
		_readDeviceProgramStatusFromEeprom		CODE           	15A8	0000	92
		_saveRemainingFertigationOnPeriod		CODE           	089C	0000	166
		_loadDataFromEeprom		CODE           	17FD2	0000	1760
		_eepromRead    		CODE           	2122	0000	38

eeprom.c estimated size: 11504

C:\Program Files\Microchip\xc8\v2.35\pic\sources\c99\common\abs.c
		_abs           		CODE           	1BB0	0000	66

C:\Program Files\Microchip\xc8\v2.35\pic\sources\c99\common\abs.c estimated size: 66

C:\Program Files\Microchip\xc8\v2.35\pic\sources\c99\common\Umul32.c
		___lmul        		CODE           	1154	0000	108

C:\Program Files\Microchip\xc8\v2.35\pic\sources\c99\common\Umul32.c estimated size: 108

shared
		_cmd18_12      		MEDIUMCONST    	F1DD	0000	13
		_cmd2_9        		MEDIUMCONST    	F25A	0000	10
		i2_vfpfcnvrt   		CODE           	1D61A	0000	574
		_mqttConnect   		MEDIUMCONST    	EDC1	0000	19
		i2_pad         		CODE           	1FC5E	0000	198
		_extract       		MEDIUMCONST    	F296	0000	8
		i2_abs         		CODE           	1C32	0000	64
		_NotSR11_40    		MEDIUMCONST    	ECC7	0000	41
		i2_lcdCreateChar		CODE           	1A44	0000	80
		i2_lcdSend     		CODE           	20FA	0000	40
		_cmd3_9        		MEDIUMCONST    	F250	0000	10
		i2_lcd_i2cWait 		CODE           	2054	0000	44
		i2_lcd_i2cStop 		CODE           	238C	0000	18
		_NotSR03_73    		MEDIUMCONST    	EA68	0000	72
		i2_putch       		CODE           	1FFFC	0000	2
		_NotDR3_67     		MEDIUMCONST    	EF24	0000	62
		_cmd18_7       		MEDIUMCONST    	F286	0000	8
		_map           		MEDIUMCONST    	F32E	0000	4
		_fdata         		MEDIUMCONST    	F2FE	0000	6
		_NotSR14_58    		MEDIUMCONST    	EBFF	0000	59
		_NotIrr4_30    		MEDIUMCONST    	F178	0000	25
		_NotSLV3_7     		MEDIUMCONST    	F276	0000	8
		_cmd16_9       		MEDIUMCONST    	F246	0000	10
		i1_strncmp     		CODE           	1E556	0000	370
		_disable       		MEDIUMCONST    	F2A6	0000	8
		_cmd19_10      		MEDIUMCONST    	F21A	0000	11
		i2_strncmp     		CODE           	1E82E	0000	358
		_NotSR06_72    		MEDIUMCONST    	EAF7	0000	71
		_getfreq       		MEDIUMCONST    	F30A	0000	5
		_NotIrr7_16    		MEDIUMCONST    	EDD4	0000	15
		_NotRTC2_6     		MEDIUMCONST    	F2B5	0000	7
		i2_lcd_i2cWrite		CODE           	2274	0000	26
		_NotSR09_30    		MEDIUMCONST    	ED7B	0000	31
		_NotPh1_50     		MEDIUMCONST    	EC6C	0000	47
		i2_lcd_i2cStart		CODE           	239E	0000	18
		_feed          		MEDIUMCONST    	F30F	0000	5
		i2_vfprintf    		CODE           	12F6	0000	102
		_active        		MEDIUMCONST    	F2D8	0000	7
		_NotMotor1_55  		MEDIUMCONST    	EFCC	0000	52
		_slave         		MEDIUMCONST    	F2F2	0000	6
		_alive1        		MEDIUMCONST    	F304	0000	6
		_cmd14_11      		MEDIUMCONST    	F1F6	0000	12
		i2_ctoa        		CODE           	1F53E	0000	216
		_NotMS1_57     		MEDIUMCONST    	EF98	0000	52
		i2_lcdSetCursor		CODE           	1604	0000	92
		_eepromAddress 		MEDIUMCONST    	EC9B	0000	44
		_sensor        		MEDIUMCONST    	F2CA	0000	7
		_NotSR10_35    		MEDIUMCONST    	ED15	0000	36
		i2_dtoa        		CODE           	1CBD8	0000	740
		_enable        		MEDIUMCONST    	F2DF	0000	7
		_NotSR02_76    		MEDIUMCONST    	E9D3	0000	75
		_cmqttError    		MEDIUMCONST    	F1CF	0000	14
		_NotDR1_84     		MEDIUMCONST    	EE51	0000	79
		_countryCode   		MEDIUMCONST    	EDFB	0000	4
		_set           		MEDIUMCONST    	F332	0000	4
		i2_lcdDataWrite		CODE           	23DA	0000	14
		_alive         		MEDIUMCONST    	F2E6	0000	6
		i2_removeIcon  		CODE           	228E	0000	24
		_NotSR13_32    		MEDIUMCONST    	ED39	0000	33
		_NotSLV2_6     		MEDIUMCONST    	F2AE	0000	7
		i2_fetchDigits 		CODE           	11C0	0000	106
		_NotDR4_72     		MEDIUMCONST    	EEA0	0000	67
		__initialization		CODE           	1FD24	0000	176
		_NotSR05_80    		MEDIUMCONST    	E984	0000	79
		_cmd4_7        		MEDIUMCONST    	F28E	0000	8
		_cmd7_17       		MEDIUMCONST    	F191	0000	18
		_NotIrr6_54    		MEDIUMCONST    	F000	0000	49
		i2_clearFieldByte		CODE           	1F62	0000	50
		_NotRTC1_30    		MEDIUMCONST    	F144	0000	27
		_ok            		MEDIUMCONST    	EDFF	0000	3
		_NotSR08_36    		MEDIUMCONST    	ECF0	0000	37
		_lowbattery    		MEDIUMCONST    	F1A3	0000	16
		_cmd9_11       		MEDIUMCONST    	F20E	0000	12
		i1_clearDecodedString		CODE           	1EFE	0000	50
		_dactive       		MEDIUMCONST    	F29E	0000	8
		i2_clearDecodedString		CODE           	1F94	0000	50
		_NotIrr9_48    		MEDIUMCONST    	F031	0000	43
		_NotPh2_72     		MEDIUMCONST    	EB3E	0000	69
		_NotRTC4_36    		MEDIUMCONST    	F0EB	0000	33
		_ct            		MEDIUMCONST    	F32A	0000	4
		_on            		MEDIUMCONST    	F336	0000	3
		i2___aodiv     		CODE           	1E25C	0000	392
		_cmd10_10      		MEDIUMCONST    	F225	0000	11
		_cmd6_10       		MEDIUMCONST    	F230	0000	11
		_error         		MEDIUMCONST    	F2EC	0000	6
		_idle          		MEDIUMCONST    	EDF6	0000	5
		i2_sprintf     		CODE           	19A2	0000	82
		i2_lcdWriteChar		CODE           	23F6	0000	10
		_SmsAU4_63     		MEDIUMCONST    	EB83	0000	64
		_NotFert7_70   		MEDIUMCONST    	EEE3	0000	65
		_NotFert5_33   		MEDIUMCONST    	F128	0000	28
		_NotFert6_33   		MEDIUMCONST    	F10C	0000	28
		_NotFert8_59   		MEDIUMCONST    	EF62	0000	54
		_inject        		MEDIUMCONST    	EDEF	0000	7
		i2_lcdCommandWrite		CODE           	23E8	0000	14
		_NotSR01_59    		MEDIUMCONST    	EBC3	0000	60
		_mqtt_ca       		MEDIUMCONST    	E3E7	0000	1437
		i2_displayIcon 		CODE           	1F30	0000	50
		_NotSR12_32    		MEDIUMCONST    	ED5A	0000	33
		i2_lcd_i2cWriteByteSingleReg		CODE           	0F06	0000	132
		_NotDR2_84     		MEDIUMCONST    	EE02	0000	79
		_NotSLV1_39    		MEDIUMCONST    	F087	0000	34
		_getct         		MEDIUMCONST    	F326	0000	4
		_cmd11_11      		MEDIUMCONST    	F202	0000	12
		_secret        		MEDIUMCONST    	EDE3	0000	12
		_hold          		MEDIUMCONST    	F319	0000	5
		_NotSR04_75    		MEDIUMCONST    	EA1E	0000	74
		i2___aomod     		CODE           	1E994	0000	356
		_master        		MEDIUMCONST    	F2D1	0000	7
		_ack           		MEDIUMCONST    	F31E	0000	4
		_off           		MEDIUMCONST    	F322	0000	4
		_cmd17_11      		MEDIUMCONST    	F1EA	0000	12
		_NotSR15_49    		MEDIUMCONST    	EC3A	0000	50
		_NotIrr5_30    		MEDIUMCONST    	F15F	0000	25
		i2_fputc       		CODE           	1F7AE	0000	202
		_NotSLV4_38    		MEDIUMCONST    	F0A9	0000	33
		i2_fputs       		CODE           	1B6C	0000	68
		i2_strlen      		CODE           	19F4	0000	80
		_cmd8_13       		MEDIUMCONST    	F1C1	0000	14
		_NotSR07_72    		MEDIUMCONST    	EAB0	0000	71
		_admin         		MEDIUMCONST    	F339	0000	3
		_cmd1_6        		MEDIUMCONST    	F2C3	0000	7
		_NotIrr8_48    		MEDIUMCONST    	F05C	0000	43
		_NotRTC3_7     		MEDIUMCONST    	F27E	0000	8
		_resetslave    		MEDIUMCONST    	F23B	0000	11
		_setct         		MEDIUMCONST    	F2F8	0000	6
		_cmd15_6       		MEDIUMCONST    	F2BC	0000	7
		_cmd5_8        		MEDIUMCONST    	F26D	0000	9
		_time          		MEDIUMCONST    	F314	0000	5
		_NotPh3_23     		MEDIUMCONST    	ED9A	0000	20
		i2_LCDwritePCF8574		CODE           	237A	0000	18
		_cmd13_8       		MEDIUMCONST    	F264	0000	9
		_cmd12_13      		MEDIUMCONST    	F1B3	0000	14
		i2_LCDpulseEnableNeg		CODE           	2148	0000	36
		_NotPh6_22     		MEDIUMCONST    	EDAE	0000	19
		_NotRTC6_36    		MEDIUMCONST    	F0CA	0000	33
		i2_lcdWrite4Bits		CODE           	22F6	0000	20
		i2_clearGsmResponse		CODE           	1DCC	0000	54

shared estimated size: 8851

ADC.c
		_getADCResult  		CODE           	1A94	0000	72
		_selectChannel 		CODE           	1F940	0000	200

ADC.c estimated size: 272

i2c_LCD_PCF8574.c
		_lcdWriteStringIndex		CODE           	1CB0	0000	62
		_displayIcon   		CODE           	1CEE	0000	58
		_lcdSetCursor  		CODE           	1424	0000	100
		_lcdDisplayOn  		CODE           	23B0	0000	14
		_LCDwritePCF8574		CODE           	22A6	0000	20
		_lcdDisplayOff 		CODE           	23BE	0000	14
		_LCDpulseEnableNeg		CODE           	2080	0000	42
		_lcdClear      		CODE           	216C	0000	34
		_lcdClearLine  		CODE           	218E	0000	32
		_lcdCommandWrite		CODE           	2332	0000	18
		_lcdCreateChar 		CODE           	1660	0000	88
		_lcdWriteChar  		CODE           	23CC	0000	14
		_lcdInit       		CODE           	1EAF8	0000	336
		_lcdSend       		CODE           	2026	0000	46
		_lcdWrite4Bits 		CODE           	225A	0000	26
		_lcdDataWrite  		CODE           	2344	0000	18
		_lcdWriteStringAtCenter		CODE           	1F464	0000	218
		_lcdWriteString		CODE           	1BF2	0000	64
		_removeIcon    		CODE           	21CE	0000	30

i2c_LCD_PCF8574.c estimated size: 1234

C:\Program Files\Microchip\xc8\v2.35\pic\sources\c99\common\strlen.c
		_strlen        		CODE           	17B4	0000	84

C:\Program Files\Microchip\xc8\v2.35\pic\sources\c99\common\strlen.c estimated size: 84

controllerActions.c
		_isNumber      		CODE           	1FC6	0000	48
		_doLowPhaseAction		CODE           	1DA4E	0000	428
		_doDryRunAction		CODE           	15F70	0000	2548
		_isFieldMoistureSensorWetLora		CODE           	07F2	0000	170
		_isRTCBatteryDrained		CODE           	0942	0000	164
		_actionsOnSleepCountFinish		CODE           	12B96	0000	3862
		_clearDecodedString		CODE           	1E68	0000	50
		_actionsOnSystemReset		CODE           	147F0	0000	3180
		_deepSleep     		CODE           	19F66	0000	1428
		_setFactoryPincode		CODE           	069A	0000	174
		_calibrateMotorCurrent		CODE           	1AA26	0000	1318
		_strcpyCustom  		CODE           	1EFD6	0000	254
		_doLoraSlaveInActiveAction		CODE           	18D7A	0000	1644
		_days          		CODE           	1EEBA	0000	284
		_clearTempBytesString		CODE           	1E9A	0000	50
		_clearFieldByte		CODE           	1ECC	0000	50
		_doPhaseFailureAction		CODE           	1DF38	0000	410
		_randomPasswordGeneration		CODE           	1FF4A	0000	176
		_fetchDigits   		CODE           	10E6	0000	110
		_configureController		CODE           	1C5A6	0000	822
		_clearGsmResponse		CODE           	1D60	0000	54
		_deActivateValve		CODE           	1DBFA	0000	418
		_getDateFromGSM		CODE           	1B8E0	0000	1146
		_powerOffMotor 		CODE           	0CDC	0000	146
		_actionsOnDueValve		CODE           	171AC	0000	1832
		_checkResetType		CODE           	1ED82	0000	312
		_isMotorInNoLoad		CODE           	1F1BE	0000	226
		_scanValveScheduleAndGetSleepCount		CODE           	1545C	0000	2836
		_extractReceivedSms		CODE           	10000	0000	11158
		_clearStringToDecode		CODE           	1E36	0000	50
		_phaseFailure  		CODE           	1D28	0000	56
		_getDueDate    		CODE           	1A4FA	0000	1324
		_activateValve 		CODE           	1B42E	0000	1202
		_powerOnMotor  		CODE           	0DF8	0000	136

controllerActions.c estimated size: 38066

C:\Program Files\Microchip\xc8\v2.35\pic\sources\c99\common\aomod.c
		___aomod       		CODE           	1E6C8	0000	358

C:\Program Files\Microchip\xc8\v2.35\pic\sources\c99\common\aomod.c estimated size: 358

C:\Program Files\Microchip\xc8\v2.35\pic\sources\c99\common\nf_fputs.c
		_fputs         		CODE           	1B24	0000	72

C:\Program Files\Microchip\xc8\v2.35\pic\sources\c99\common\nf_fputs.c estimated size: 72

i2c_RTC_DS1307.c
		_decimal2BCD   		CODE           	1C72	0000	62
		_bcd2Decimal   		CODE           	21AE	0000	32
		_fetchTimefromRTC		CODE           	1FDDE	0000	186
		_feedTimeInRTC 		CODE           	09E6	0000	164

i2c_RTC_DS1307.c estimated size: 444

C:\Program Files\Microchip\xc8\v2.35\pic\sources\c99\common\lwmod.c
		___lwmod       		CODE           	1290	0000	102

C:\Program Files\Microchip\xc8\v2.35\pic\sources\c99\common\lwmod.c estimated size: 102

C:\Program Files\Microchip\xc8\v2.35\pic\sources\c99\common\awmod.c
		___awmod       		CODE           	1FE98	0000	178

C:\Program Files\Microchip\xc8\v2.35\pic\sources\c99\common\awmod.c estimated size: 178

C:\Program Files\Microchip\xc8\v2.35\pic\sources\c99\common\doprnt.c
		_vfpfcnvrt     		CODE           	1D3D0	0000	586
		_pad           		CODE           	1F616	0000	204
		_ctoa          		CODE           	1F0D4	0000	234
		_dtoa          		CODE           	1C8DC	0000	764
		_vfprintf      		CODE           	122A	0000	102

C:\Program Files\Microchip\xc8\v2.35\pic\sources\c99\common\doprnt.c estimated size: 1890

